gpasm-1.4.0 #1106 (Oct  6 2014) obj\Debug\gpi   8-17-2021  02:09:23         PAGE  1


LOC    OBJECT CODE    LINE  SOURCE TEXT
  VALUE

                      00001 ;--------------------------------------------------------
                      00002 ; File Created by SDCC : free open source ANSI-C Compiler
                      00003 ; Version 3.5.0 #9253 (Jun 20 2015) (MINGW32)
                      00004 ; This file was generated Tue Aug 17 02:09:23 2021
                      00005 ;--------------------------------------------------------
                      00006 ; PIC port for the 14-bit core
                      00007 ;--------------------------------------------------------
                      00008         .file   "gpio.c"
                      00009         list    p=16f877a
                      00010         radix dec
                      00011         include "p16f877a.inc"
                      00001         LIST
                      00002 
                      00003 ;==========================================================================
                      00004 ; Build date : Aug 07 2014
                      00005 ;  MPASM PIC16F877A processor include
                      00006 ; 
                      00007 ;  (c) Copyright 1999-2014 Microchip Technology, All rights reserved
                      00008 ;==========================================================================
                      00009 
                      00567         LIST
                      00012 ;--------------------------------------------------------
                      00013 ; external declarations
                      00014 ;--------------------------------------------------------
  0000                00015         extern  _UTILITES_DelayMS
  0000                00016         extern  _STATUSbits
  0000                00017         extern  _PORTAbits
  0000                00018         extern  _PORTBbits
  0000                00019         extern  _PORTCbits
  0000                00020         extern  _PORTDbits
  0000                00021         extern  _PORTEbits
  0000                00022         extern  _INTCONbits
  0000                00023         extern  _PIR1bits
  0000                00024         extern  _PIR2bits
  0000                00025         extern  _T1CONbits
  0000                00026         extern  _T2CONbits
  0000                00027         extern  _SSPCONbits
  0000                00028         extern  _CCP1CONbits
  0000                00029         extern  _RCSTAbits
  0000                00030         extern  _CCP2CONbits
  0000                00031         extern  _ADCON0bits
  0000                00032         extern  _OPTION_REGbits
  0000                00033         extern  _TRISAbits
  0000                00034         extern  _TRISBbits
  0000                00035         extern  _TRISCbits
  0000                00036         extern  _TRISDbits
  0000                00037         extern  _TRISEbits
  0000                00038         extern  _PIE1bits
  0000                00039         extern  _PIE2bits
  0000                00040         extern  _PCONbits
  0000                00041         extern  _SSPCON2bits
  0000                00042         extern  _SSPSTATbits
  0000                00043         extern  _TXSTAbits
gpasm-1.4.0 #1106 (Oct  6 2014) obj\Debug\gpi   8-17-2021  02:09:23         PAGE  2


LOC    OBJECT CODE    LINE  SOURCE TEXT
  VALUE

  0000                00044         extern  _CMCONbits
  0000                00045         extern  _CVRCONbits
  0000                00046         extern  _ADCON1bits
  0000                00047         extern  _EECON1bits
  0000                00048         extern  _INDF
  0000                00049         extern  _TMR0
  0000                00050         extern  _PCL
  0000                00051         extern  _STATUS
  0000                00052         extern  _FSR
  0000                00053         extern  _PORTA
  0000                00054         extern  _PORTB
  0000                00055         extern  _PORTC
  0000                00056         extern  _PORTD
  0000                00057         extern  _PORTE
  0000                00058         extern  _PCLATH
  0000                00059         extern  _INTCON
  0000                00060         extern  _PIR1
  0000                00061         extern  _PIR2
  0000                00062         extern  _TMR1
  0000                00063         extern  _TMR1L
  0000                00064         extern  _TMR1H
  0000                00065         extern  _T1CON
  0000                00066         extern  _TMR2
  0000                00067         extern  _T2CON
  0000                00068         extern  _SSPBUF
  0000                00069         extern  _SSPCON
  0000                00070         extern  _CCPR1
  0000                00071         extern  _CCPR1L
  0000                00072         extern  _CCPR1H
  0000                00073         extern  _CCP1CON
  0000                00074         extern  _RCSTA
  0000                00075         extern  _TXREG
  0000                00076         extern  _RCREG
  0000                00077         extern  _CCPR2
  0000                00078         extern  _CCPR2L
  0000                00079         extern  _CCPR2H
  0000                00080         extern  _CCP2CON
  0000                00081         extern  _ADRESH
  0000                00082         extern  _ADCON0
  0000                00083         extern  _OPTION_REG
  0000                00084         extern  _TRISA
  0000                00085         extern  _TRISB
  0000                00086         extern  _TRISC
  0000                00087         extern  _TRISD
  0000                00088         extern  _TRISE
  0000                00089         extern  _PIE1
  0000                00090         extern  _PIE2
  0000                00091         extern  _PCON
  0000                00092         extern  _SSPCON2
  0000                00093         extern  _PR2
  0000                00094         extern  _SSPADD
  0000                00095         extern  _SSPSTAT
  0000                00096         extern  _TXSTA
gpasm-1.4.0 #1106 (Oct  6 2014) obj\Debug\gpi   8-17-2021  02:09:23         PAGE  3


LOC    OBJECT CODE    LINE  SOURCE TEXT
  VALUE

  0000                00097         extern  _SPBRG
  0000                00098         extern  _CMCON
  0000                00099         extern  _CVRCON
  0000                00100         extern  _ADRESL
  0000                00101         extern  _ADCON1
  0000                00102         extern  _EEDATA
  0000                00103         extern  _EEADR
  0000                00104         extern  _EEDATH
  0000                00105         extern  _EEADRH
  0000                00106         extern  _EECON1
  0000                00107         extern  _EECON2
                      00108 
  0000                00109         extern PSAVE
  0000                00110         extern SSAVE
  0000                00111         extern WSAVE
  0000                00112         extern STK12
  0000                00113         extern STK11
  0000                00114         extern STK10
  0000                00115         extern STK09
  0000                00116         extern STK08
  0000                00117         extern STK07
  0000                00118         extern STK06
  0000                00119         extern STK05
  0000                00120         extern STK04
  0000                00121         extern STK03
  0000                00122         extern STK02
  0000                00123         extern STK01
  0000                00124         extern STK00
                      00125 ;--------------------------------------------------------
                      00126 ; global declarations
                      00127 ;--------------------------------------------------------
  0000                00128         global  _GPIO_GetPinDirection
  0000                00129         global  _GPIO_GetPinState
  0000                00130         global  _GPIO_GetPortDirection
  0000                00131         global  _GPIO_GetPortState
  0000                00132         global  _GPIO_SetPinDirection
  0000                00133         global  _GPIO_SetPinState
  0000                00134         global  _GPIO_SetPortDirection
  0000                00135         global  _GPIO_SetPortData
  0000                00136         global  _GPIO_UpdatePin
  0000                00137         global  _GPIO_UpdatePort
  0000                00138         global  _GPIO_InitPin
  0000                00139         global  _GPIO_InitPort
                      00140 
                      00141 ;--------------------------------------------------------
                      00142 ; global definitions
                      00143 ;--------------------------------------------------------
                      00144 ;--------------------------------------------------------
                      00145 ; absolute symbol definitions
                      00146 ;--------------------------------------------------------
                      00147 ;--------------------------------------------------------
                      00148 ; compiler-defined variables
                      00149 ;--------------------------------------------------------
gpasm-1.4.0 #1106 (Oct  6 2014) obj\Debug\gpi   8-17-2021  02:09:23         PAGE  4


LOC    OBJECT CODE    LINE  SOURCE TEXT
  VALUE

                      00150 UDL_gpio_0      udata
0000                  00151 r0x1020 res     1
0001                  00152 r0x1021 res     1
0002                  00153 r0x1022 res     1
0003                  00154 r0x101C res     1
0004                  00155 r0x101D res     1
0005                  00156 r0x101E res     1
0006                  00157 r0x101F res     1
0007                  00158 r0x101A res     1
0008                  00159 r0x101B res     1
0009                  00160 r0x1018 res     1
000A                  00161 r0x1019 res     1
000B                  00162 r0x1014 res     1
000C                  00163 r0x1015 res     1
000D                  00164 r0x1016 res     1
000E                  00165 r0x1017 res     1
000F                  00166 r0x1010 res     1
0010                  00167 r0x1011 res     1
0011                  00168 r0x1012 res     1
0012                  00169 r0x1013 res     1
0013                  00170 r0x100E res     1
0014                  00171 r0x100F res     1
0015                  00172 r0x100C res     1
0016                  00173 r0x100D res     1
0017                  00174 r0x1006 res     1
0018                  00175 r0x1007 res     1
0019                  00176 r0x1008 res     1
001A                  00177 r0x1009 res     1
001B                  00178 r0x100A res     1
001C                  00179 r0x100B res     1
001D                  00180 r0x1000 res     1
001E                  00181 r0x1001 res     1
001F                  00182 r0x1002 res     1
0020                  00183 r0x1003 res     1
0021                  00184 r0x1004 res     1
0022                  00185 r0x1005 res     1
                      00186 ;--------------------------------------------------------
                      00187 ; initialized data
                      00188 ;--------------------------------------------------------
                      00189 ;--------------------------------------------------------
                      00190 ; overlayable items in internal ram 
                      00191 ;--------------------------------------------------------
                      00192 ;       udata_ovr
                      00193 ;--------------------------------------------------------
                      00194 ; code
                      00195 ;--------------------------------------------------------
                      00196 code_gpio       code
                      00197 ;***
                      00198 ;  pBlock Stats: dbName = C
                      00199 ;***
                      00200 ;entry:  _GPIO_GetPinDirection  ;Function start
                      00201 ; 2 exit points
                      00202 ;has an exit
gpasm-1.4.0 #1106 (Oct  6 2014) obj\Debug\gpi   8-17-2021  02:09:23         PAGE  5


LOC    OBJECT CODE    LINE  SOURCE TEXT
  VALUE

                      00203 ;7 compiler assigned registers:
                      00204 ;   r0x1000
                      00205 ;   STK00
                      00206 ;   r0x1001
                      00207 ;   r0x1002
                      00208 ;   r0x1003
                      00209 ;   r0x1004
                      00210 ;   r0x1005
                      00211 ;; Starting pCode block
                      00212 ;;; /home/sdcc-builder/build/sdcc-build/orig/sdcc/src/pic14/gen.c:2316:resultRemat *{*
                      00213 ;;; /home/sdcc-builder/build/sdcc-build/orig/sdcc/src/pic14/gen.c:2760:genLabel *{*
                      00214 ;; ***  genLabel  2763
                      00215 ;;; /home/sdcc-builder/build/sdcc-build/orig/sdcc/src/pic14/gen.c:2316:resultRemat *{*
                      00216 ;;; /home/sdcc-builder/build/sdcc-build/orig/sdcc/src/pic14/gen.c:2340:genFunction *{*
                      00217 ;; ***  genFunction  2342 curr label offset=168previous max_key=34 
0000                  00218 _GPIO_GetPinDirection   ;Function start
                      00219 ; 2 exit points
                      00220 ;;; /home/sdcc-builder/build/sdcc-build/orig/sdcc/src/pic14/gen.c:2316:resultRemat *{*
                      00221 ;;; /home/sdcc-builder/build/sdcc-build/orig/sdcc/src/pic14/gen.c:7358:genReceive *{*
                      00222 ;; ***  genReceive  7359
                      00223 ;;      694 register type nRegs=1
                      00224 ;;; /home/sdcc-builder/build/sdcc-build/orig/sdcc/src/pic14/gen.c:1907:assignResultValue *{*
                      00225 ;; ***  assignResultValue  1909
                      00226 ;;      line = 1911 result -=-, size=0, left AOP_REG=r0x1066, size=1, right -=-, size=0
                      00227 ;; >>> /home/sdcc-builder/build/sdcc-build/orig/sdcc/src/pic14/gen.c:1393:movwf
                      00228 ;;      1109 rIdx = r0x1066 
                      00229         .line   207; "gpio.c"   tPIN_DIRECTION GPIO_GetPinDirection(tPORT port, tPIN pin)
0000   ???? ????      00230         BANKSEL r0x1000
0002   00??           00231         MOVWF   r0x1000
                      00232 ;;; /home/sdcc-builder/build/sdcc-build/orig/sdcc/src/pic14/gen.c:2316:resultRemat *{*
                      00233 ;;; /home/sdcc-builder/build/sdcc-build/orig/sdcc/src/pic14/gen.c:7358:genReceive *{*
                      00234 ;; ***  genReceive  7359
                      00235 ;;      694 register type nRegs=1
                      00236 ;;; /home/sdcc-builder/build/sdcc-build/orig/sdcc/src/pic14/gen.c:1907:assignResultValue *{*
                      00237 ;; ***  assignResultValue  1909
                      00238 ;;      line = 1911 result -=-, size=0, left AOP_REG=r0x1067, size=1, right -=-, size=0
                      00239 ;; >>> /home/sdcc-builder/build/sdcc-build/orig/sdcc/src/pic14/gen.c:1423:get_returnvalue
                      00240 ;; ***  popRegFromIdx,1042  , rIdx=0x7f
0003   08??           00241         MOVF    STK00,W
                      00242 ;; >>> /home/sdcc-builder/build/sdcc-build/orig/sdcc/src/pic14/gen.c:1393:movwf
                      00243 ;;      1109 rIdx = r0x1067 
0004   00??           00244         MOVWF   r0x1001
                      00245 ;;; /home/sdcc-builder/build/sdcc-build/orig/sdcc/src/pic14/gen.c:2316:resultRemat *{*
                      00246 ;;; /home/sdcc-builder/build/sdcc-build/orig/sdcc/src/pic14/gen.c:6927:genAssign *{*
                      00247 ;; ***  genAssign  6928
                      00248 ;;      694 register type nRegs=1
                      00249 ;;      line = 6937 result AOP_REG=r0x1068, size=1, left -=-, size=0, right AOP_LIT=0x00, size=1
                      00250 ;; ***  genAssign  7023
                      00251 ;; >>> /home/sdcc-builder/build/sdcc-build/orig/sdcc/src/pic14/gen.c:7035:genAssign
                      00252 ;;      1109 rIdx = r0x1068 
                      00253         .line   209; "gpio.c"   tPIN_DIRECTION ret = PIN_OUTPUT ;
0005   01??           00254         CLRF    r0x1002
                      00255 ;;; /home/sdcc-builder/build/sdcc-build/orig/sdcc/src/pic14/gen.c:2316:resultRemat *{*
gpasm-1.4.0 #1106 (Oct  6 2014) obj\Debug\gpi   8-17-2021  02:09:23         PAGE  6


LOC    OBJECT CODE    LINE  SOURCE TEXT
  VALUE

                      00256 ;;; /home/sdcc-builder/build/sdcc-build/orig/sdcc/src/pic14/gen.c:3547:genCmpGt *{*
                      00257 ;; ***  genCmpGt  3548
                      00258 ;;      694 register type nRegs=1
                      00259 ;;; /home/sdcc-builder/build/sdcc-build/orig/sdcc/src/pic14/gen.c:3294:genCmp *{*
                      00260 ;;swapping arguments (AOP_TYPEs 1/2)
                      00261 ;;unsigned compare: left >= lit(0x5=5), size=1
                      00262 ;; >>> /home/sdcc-builder/build/sdcc-build/orig/sdcc/src/pic14/gen.c:3265:pic14_mov2w_regOrLit
                      00263         .line   210; "gpio.c"   switch(port)
0006   3005           00264         MOVLW   0x05
                      00265 ;; >>> /home/sdcc-builder/build/sdcc-build/orig/sdcc/src/pic14/gen.c:3432:genCmp
                      00266 ;;      1109 rIdx = r0x1066 
0007   02??           00267         SUBWF   r0x1000,W
                      00268 ;;; /home/sdcc-builder/build/sdcc-build/orig/sdcc/src/pic14/gen.c:3237:genSkipc *{*
                      00269 ;; >>> /home/sdcc-builder/build/sdcc-build/orig/sdcc/src/pic14/gen.c:3242:genSkipc
0008   1803           00270         BTFSC   STATUS,0
                      00271 ;; >>> /home/sdcc-builder/build/sdcc-build/orig/sdcc/src/pic14/gen.c:3246:genSkipc
                      00272 ;; ***  popGetLabel  key=7, label offset 206
0009   2???           00273         GOTO    _00313_DS_
                      00274 ;;genSkipc:3247: created from rifx:027A5DF4
                      00275 ;;; /home/sdcc-builder/build/sdcc-build/orig/sdcc/src/pic14/gen.c:2316:resultRemat *{*
                      00276 ;;; /home/sdcc-builder/build/sdcc-build/orig/sdcc/src/pic14/gen.c:2316:resultRemat *{*
                      00277 ;;; /home/sdcc-builder/build/sdcc-build/orig/sdcc/src/pic14/gen.c:7071:genJumpTab *{*
                      00278 ;; ***  genJumpTab  7072
                      00279 ;;      694 register type nRegs=1
                      00280 ;; >>> /home/sdcc-builder/build/sdcc-build/orig/sdcc/src/pic14/gen.c:7087:genJumpTab
                      00281 ;; ***  popGetLabel  key=14, label offset 206
000A   30??           00282         MOVLW   HIGH(_00320_DS_)
                      00283 ;; >>> /home/sdcc-builder/build/sdcc-build/orig/sdcc/src/pic14/gen.c:7088:genJumpTab
000B   1283 1303      00284         BANKSEL PCLATH
000D   008A           00285         MOVWF   PCLATH
                      00286 ;; >>> /home/sdcc-builder/build/sdcc-build/orig/sdcc/src/pic14/gen.c:7089:genJumpTab
                      00287 ;; ***  popGetLabel  key=14, label offset 206
000E   30??           00288         MOVLW   _00320_DS_
                      00289 ;; >>> /home/sdcc-builder/build/sdcc-build/orig/sdcc/src/pic14/gen.c:7090:genJumpTab
                      00290 ;;      1109 rIdx = r0x1066 
000F   ???? ????      00291         BANKSEL r0x1000
0011   07??           00292         ADDWF   r0x1000,W
                      00293 ;; >>> /home/sdcc-builder/build/sdcc-build/orig/sdcc/src/pic14/gen.c:7091:genJumpTab
0012   1C03           00294         BTFSS   STATUS,0
0013   2???           00295         GOTO    _00001_DS_
                      00296 ;; >>> /home/sdcc-builder/build/sdcc-build/orig/sdcc/src/pic14/gen.c:7092:genJumpTab
0014   1283 1303      00297         BANKSEL PCLATH
0016   0A8A           00298         INCF    PCLATH,F
                      00299 ;; >>> /home/sdcc-builder/build/sdcc-build/orig/sdcc/src/pic14/gen.c:7093:genJumpTab
0017                  00300 _00001_DS_
0017   0082           00301         MOVWF   PCL
                      00302 ;; >>> /home/sdcc-builder/build/sdcc-build/orig/sdcc/src/pic14/gen.c:7102:genJumpTab
                      00303 ;; ***  popGetLabel  key=1, label offset 206
0018                  00304 _00320_DS_
0018   2???           00305         GOTO    _00307_DS_
                      00306 ;; >>> /home/sdcc-builder/build/sdcc-build/orig/sdcc/src/pic14/gen.c:7102:genJumpTab
                      00307 ;; ***  popGetLabel  key=2, label offset 206
0019   2???           00308         GOTO    _00308_DS_
gpasm-1.4.0 #1106 (Oct  6 2014) obj\Debug\gpi   8-17-2021  02:09:23         PAGE  7


LOC    OBJECT CODE    LINE  SOURCE TEXT
  VALUE

                      00309 ;; >>> /home/sdcc-builder/build/sdcc-build/orig/sdcc/src/pic14/gen.c:7102:genJumpTab
                      00310 ;; ***  popGetLabel  key=3, label offset 206
001A   2???           00311         GOTO    _00309_DS_
                      00312 ;; >>> /home/sdcc-builder/build/sdcc-build/orig/sdcc/src/pic14/gen.c:7102:genJumpTab
                      00313 ;; ***  popGetLabel  key=4, label offset 206
001B   2???           00314         GOTO    _00310_DS_
                      00315 ;; >>> /home/sdcc-builder/build/sdcc-build/orig/sdcc/src/pic14/gen.c:7102:genJumpTab
                      00316 ;; ***  popGetLabel  key=5, label offset 206
001C   2???           00317         GOTO    _00311_DS_
                      00318 ;;; /home/sdcc-builder/build/sdcc-build/orig/sdcc/src/pic14/gen.c:2316:resultRemat *{*
                      00319 ;;; /home/sdcc-builder/build/sdcc-build/orig/sdcc/src/pic14/gen.c:2760:genLabel *{*
                      00320 ;; ***  genLabel  2763
                      00321 ;;; /home/sdcc-builder/build/sdcc-build/orig/sdcc/src/pic14/gen.c:2316:resultRemat *{*
                      00322 ;;; /home/sdcc-builder/build/sdcc-build/orig/sdcc/src/pic14/gen.c:5418:genGenericShift *{*
                      00323 ;; ***  genGenericShift  5421
                      00324 ;;      694 register type nRegs=1
                      00325 ;;      694 register type nRegs=2
                      00326 ;; ***  mov2w  1381  offset=1
                      00327 ;; >>> /home/sdcc-builder/build/sdcc-build/orig/sdcc/src/pic14/gen.c:1384:mov2w
001D                  00328 _00307_DS_
                      00329         .line   213; "gpio.c"   ret=  ReadRegisterPinValue(DIRECTION_REGISTER_PORTA,pin) ;
001D   3000           00330         MOVLW   0x00
                      00331 ;; >>> /home/sdcc-builder/build/sdcc-build/orig/sdcc/src/pic14/gen.c:1393:movwf
                      00332 ;;      1109 rIdx = r0x1069 
001E   ???? ????      00333         BANKSEL r0x1003
0020   00??           00334         MOVWF   r0x1003
                      00335 ;; ***  mov2w  1381  offset=0
                      00336 ;; >>> /home/sdcc-builder/build/sdcc-build/orig/sdcc/src/pic14/gen.c:1384:mov2w
0021   3001           00337         MOVLW   0x01
                      00338 ;; >>> /home/sdcc-builder/build/sdcc-build/orig/sdcc/src/pic14/gen.c:1393:movwf
                      00339 ;;      1109 rIdx = r0x1066 
0022   00??           00340         MOVWF   r0x1000
                      00341 ;; ***  addSign  861
                      00342 ;;; /home/sdcc-builder/build/sdcc-build/orig/sdcc/src/pic14/genarith.c:862:addSign *{*
                      00343 ;; ***  mov2w  1381  offset=0
                      00344 ;; >>> /home/sdcc-builder/build/sdcc-build/orig/sdcc/src/pic14/gen.c:1386:mov2w
                      00345 ;;      1109 rIdx = r0x1067 
0023   08??           00346         MOVF    r0x1001,W
                      00347 ;; >>> /home/sdcc-builder/build/sdcc-build/orig/sdcc/src/pic14/gen.c:5492:genGenericShift
0024   3C00           00348         SUBLW   0x00
                      00349 ;; >>> /home/sdcc-builder/build/sdcc-build/orig/sdcc/src/pic14/gen.c:5494:genGenericShift
0025   1903           00350         BTFSC   STATUS,2
                      00351 ;; >>> /home/sdcc-builder/build/sdcc-build/orig/sdcc/src/pic14/gen.c:5495:genGenericShift
                      00352 ;; ***  popGetLabel  key=16, label offset 206
0026   2???           00353         GOTO    _00322_DS_
                      00354 ;;; /home/sdcc-builder/build/sdcc-build/orig/sdcc/src/pic14/gen.c:5369:genMultiAsm *{*
                      00355 ;; ***  genMultiAsm  5370
                      00356 ;; >>> /home/sdcc-builder/build/sdcc-build/orig/sdcc/src/pic14/gen.c:5387:genMultiAsm
                      00357 ;;      1109 rIdx = r0x1066 
0027                  00358 _00321_DS_
0027   ???? ????      00359         BANKSEL r0x1000
0029   0D??           00360         RLF     r0x1000,F
                      00361 ;; >>> /home/sdcc-builder/build/sdcc-build/orig/sdcc/src/pic14/gen.c:5387:genMultiAsm
gpasm-1.4.0 #1106 (Oct  6 2014) obj\Debug\gpi   8-17-2021  02:09:23         PAGE  8


LOC    OBJECT CODE    LINE  SOURCE TEXT
  VALUE

                      00362 ;;      1109 rIdx = r0x1069 
002A   0D??           00363         RLF     r0x1003,F
                      00364 ;; >>> /home/sdcc-builder/build/sdcc-build/orig/sdcc/src/pic14/gen.c:5501:genGenericShift
002B   3E01           00365         ADDLW   0x01
                      00366 ;; >>> /home/sdcc-builder/build/sdcc-build/orig/sdcc/src/pic14/gen.c:5502:genGenericShift
002C   1C03           00367         BTFSS   STATUS,0
                      00368 ;; >>> /home/sdcc-builder/build/sdcc-build/orig/sdcc/src/pic14/gen.c:5503:genGenericShift
                      00369 ;; ***  popGetLabel  key=15, label offset 206
002D   2???           00370         GOTO    _00321_DS_
                      00371 ;;; /home/sdcc-builder/build/sdcc-build/orig/sdcc/src/pic14/gen.c:2316:resultRemat *{*
                      00372 ;;; /home/sdcc-builder/build/sdcc-build/orig/sdcc/src/pic14/gen.c:7120:genCast *{*
                      00373 ;; ***  genCast  7121
                      00374 ;; ***  aopForSym 315
                      00375 ;;      327 sym->rname = _TRISA, size = 1
                      00376 ;;      694 register type nRegs=2
                      00377 ;;      line = 7129 result AOP_REG=r0x106A, size=2, left -=-, size=0, right AOP_DIR=_TRISA, size=1
                      00378 ;; >>> /home/sdcc-builder/build/sdcc-build/orig/sdcc/src/pic14/gen.c:7298:genCast
                      00379 ;;      1009
                      00380 ;;      1028  _TRISA   offset=0
002E                  00381 _00322_DS_
002E   ???? ????      00382         BANKSEL _TRISA
0030   08??           00383         MOVF    _TRISA,W
                      00384 ;; >>> /home/sdcc-builder/build/sdcc-build/orig/sdcc/src/pic14/gen.c:7299:genCast
                      00385 ;;      1109 rIdx = r0x106A 
0031   ???? ????      00386         BANKSEL r0x1004
0033   00??           00387         MOVWF   r0x1004
                      00388 ;; ***  addSign  861
                      00389 ;;; /home/sdcc-builder/build/sdcc-build/orig/sdcc/src/pic14/genarith.c:862:addSign *{*
                      00390 ;; >>> /home/sdcc-builder/build/sdcc-build/orig/sdcc/src/pic14/genarith.c:881:addSign
                      00391 ;;      1109 rIdx = r0x106B 
0034   01??           00392         CLRF    r0x1005
                      00393 ;;; /home/sdcc-builder/build/sdcc-build/orig/sdcc/src/pic14/gen.c:2316:resultRemat *{*
                      00394 ;;; /home/sdcc-builder/build/sdcc-build/orig/sdcc/src/pic14/gen.c:3919:genAnd *{*
                      00395 ;; ***  genAnd  3920
                      00396 ;;      694 register type nRegs=2
                      00397 ;;      694 register type nRegs=2
                      00398 ;;      694 register type nRegs=2
                      00399 ;;      line = 3955 result AOP_REG=r0x1066, size=2, left AOP_REG=r0x1066, size=2, right AOP_REG=r0x106A,
                             size=2
                      00400 ;; >>> /home/sdcc-builder/build/sdcc-build/orig/sdcc/src/pic14/gen.c:4137:genAnd
                      00401 ;;      1109 rIdx = r0x106A 
0035   08??           00402         MOVF    r0x1004,W
                      00403 ;; >>> /home/sdcc-builder/build/sdcc-build/orig/sdcc/src/pic14/gen.c:4138:genAnd
                      00404 ;;      1109 rIdx = r0x1066 
0036   05??           00405         ANDWF   r0x1000,F
                      00406 ;; >>> /home/sdcc-builder/build/sdcc-build/orig/sdcc/src/pic14/gen.c:4137:genAnd
                      00407 ;;      1109 rIdx = r0x106B 
0037   3000           00408         MOVLW   0x00
                      00409 ;; >>> /home/sdcc-builder/build/sdcc-build/orig/sdcc/src/pic14/gen.c:4138:genAnd
                      00410 ;;      1109 rIdx = r0x1069 
0038   05??           00411         ANDWF   r0x1003,F
                      00412 ;;; /home/sdcc-builder/build/sdcc-build/orig/sdcc/src/pic14/gen.c:2316:resultRemat *{*
                      00413 ;;; /home/sdcc-builder/build/sdcc-build/orig/sdcc/src/pic14/gen.c:5418:genGenericShift *{*
gpasm-1.4.0 #1106 (Oct  6 2014) obj\Debug\gpi   8-17-2021  02:09:23         PAGE  9


LOC    OBJECT CODE    LINE  SOURCE TEXT
  VALUE

                      00414 ;; ***  genGenericShift  5421
                      00415 ;;      694 register type nRegs=1
                      00416 ;;      694 register type nRegs=2
                      00417 ;;      694 register type nRegs=2
                      00418 ;; ***  mov2w  1381  offset=1
                      00419 ;; >>> /home/sdcc-builder/build/sdcc-build/orig/sdcc/src/pic14/gen.c:1386:mov2w
                      00420 ;;      1109 rIdx = r0x1069 
0039   08??           00421         MOVF    r0x1003,W
                      00422 ;; >>> /home/sdcc-builder/build/sdcc-build/orig/sdcc/src/pic14/gen.c:1393:movwf
                      00423 ;;      1109 rIdx = r0x106B 
003A   00??           00424         MOVWF   r0x1005
                      00425 ;; ***  mov2w  1381  offset=0
                      00426 ;; >>> /home/sdcc-builder/build/sdcc-build/orig/sdcc/src/pic14/gen.c:1386:mov2w
                      00427 ;;      1109 rIdx = r0x1066 
003B   08??           00428         MOVF    r0x1000,W
                      00429 ;; >>> /home/sdcc-builder/build/sdcc-build/orig/sdcc/src/pic14/gen.c:1393:movwf
                      00430 ;;      1109 rIdx = r0x106A 
003C   00??           00431         MOVWF   r0x1004
                      00432 ;; ***  addSign  861
                      00433 ;;; /home/sdcc-builder/build/sdcc-build/orig/sdcc/src/pic14/genarith.c:862:addSign *{*
                      00434 ;; ***  mov2w  1381  offset=0
                      00435 ;; >>> /home/sdcc-builder/build/sdcc-build/orig/sdcc/src/pic14/gen.c:1386:mov2w
                      00436 ;;      1109 rIdx = r0x1067 
003D   08??           00437         MOVF    r0x1001,W
                      00438 ;; >>> /home/sdcc-builder/build/sdcc-build/orig/sdcc/src/pic14/gen.c:5492:genGenericShift
003E   3C00           00439         SUBLW   0x00
                      00440 ;; >>> /home/sdcc-builder/build/sdcc-build/orig/sdcc/src/pic14/gen.c:5494:genGenericShift
003F   1903           00441         BTFSC   STATUS,2
                      00442 ;; >>> /home/sdcc-builder/build/sdcc-build/orig/sdcc/src/pic14/gen.c:5495:genGenericShift
                      00443 ;; ***  popGetLabel  key=18, label offset 206
0040   2???           00444         GOTO    _00324_DS_
                      00445 ;;; /home/sdcc-builder/build/sdcc-build/orig/sdcc/src/pic14/gen.c:5400:loadSignToC *{*
                      00446 ;; >>> /home/sdcc-builder/build/sdcc-build/orig/sdcc/src/pic14/gen.c:5403:loadSignToC
0041                  00447 _00323_DS_
0041   1003           00448         BCF     STATUS,0
                      00449 ;; >>> /home/sdcc-builder/build/sdcc-build/orig/sdcc/src/pic14/gen.c:5404:loadSignToC
0042   ???? ????      00450         BANKSEL r0x1005
0044   1B??           00451         BTFSC   r0x1005,7
                      00452 ;; >>> /home/sdcc-builder/build/sdcc-build/orig/sdcc/src/pic14/gen.c:5405:loadSignToC
0045   1403           00453         BSF     STATUS,0
                      00454 ;;; /home/sdcc-builder/build/sdcc-build/orig/sdcc/src/pic14/gen.c:5369:genMultiAsm *{*
                      00455 ;; ***  genMultiAsm  5370
                      00456 ;; >>> /home/sdcc-builder/build/sdcc-build/orig/sdcc/src/pic14/gen.c:5387:genMultiAsm
                      00457 ;;      1109 rIdx = r0x106B 
0046   0C??           00458         RRF     r0x1005,F
                      00459 ;; >>> /home/sdcc-builder/build/sdcc-build/orig/sdcc/src/pic14/gen.c:5387:genMultiAsm
                      00460 ;;      1109 rIdx = r0x106A 
0047   0C??           00461         RRF     r0x1004,F
                      00462 ;; >>> /home/sdcc-builder/build/sdcc-build/orig/sdcc/src/pic14/gen.c:5501:genGenericShift
0048   3E01           00463         ADDLW   0x01
                      00464 ;; >>> /home/sdcc-builder/build/sdcc-build/orig/sdcc/src/pic14/gen.c:5502:genGenericShift
0049   1C03           00465         BTFSS   STATUS,0
                      00466 ;; >>> /home/sdcc-builder/build/sdcc-build/orig/sdcc/src/pic14/gen.c:5503:genGenericShift
gpasm-1.4.0 #1106 (Oct  6 2014) obj\Debug\gpi   8-17-2021  02:09:23         PAGE 10


LOC    OBJECT CODE    LINE  SOURCE TEXT
  VALUE

                      00467 ;; ***  popGetLabel  key=17, label offset 206
004A   2???           00468         GOTO    _00323_DS_
                      00469 ;;; /home/sdcc-builder/build/sdcc-build/orig/sdcc/src/pic14/gen.c:2316:resultRemat *{*
                      00470 ;;; /home/sdcc-builder/build/sdcc-build/orig/sdcc/src/pic14/gen.c:7120:genCast *{*
                      00471 ;; ***  genCast  7121
                      00472 ;;      694 register type nRegs=2
                      00473 ;;      694 register type nRegs=1
                      00474 ;;      line = 7129 result AOP_REG=r0x1068, size=1, left -=-, size=0, right AOP_REG=r0x106A, size=2
                      00475 ;; ***  genCast  7253
                      00476 ;; >>> /home/sdcc-builder/build/sdcc-build/orig/sdcc/src/pic14/gen.c:7277:genCast
                      00477 ;;      1109 rIdx = r0x106A 
004B                  00478 _00324_DS_
004B   ???? ????      00479         BANKSEL r0x1004
004D   08??           00480         MOVF    r0x1004,W
                      00481 ;; >>> /home/sdcc-builder/build/sdcc-build/orig/sdcc/src/pic14/gen.c:7278:genCast
                      00482 ;;      1109 rIdx = r0x1068 
004E   00??           00483         MOVWF   r0x1002
                      00484 ;;; /home/sdcc-builder/build/sdcc-build/orig/sdcc/src/pic14/gen.c:2316:resultRemat *{*
                      00485 ;;; /home/sdcc-builder/build/sdcc-build/orig/sdcc/src/pic14/gen.c:2778:genGoto *{*
                      00486 ;; >>> /home/sdcc-builder/build/sdcc-build/orig/sdcc/src/pic14/gen.c:2780:genGoto
                      00487 ;; ***  popGetLabel  key=7, label offset 206
                      00488         .line   214; "gpio.c"   break;
004F   2???           00489         GOTO    _00313_DS_
                      00490 ;;; /home/sdcc-builder/build/sdcc-build/orig/sdcc/src/pic14/gen.c:2316:resultRemat *{*
                      00491 ;;; /home/sdcc-builder/build/sdcc-build/orig/sdcc/src/pic14/gen.c:2760:genLabel *{*
                      00492 ;; ***  genLabel  2763
                      00493 ;;; /home/sdcc-builder/build/sdcc-build/orig/sdcc/src/pic14/gen.c:2316:resultRemat *{*
                      00494 ;;; /home/sdcc-builder/build/sdcc-build/orig/sdcc/src/pic14/gen.c:5418:genGenericShift *{*
                      00495 ;; ***  genGenericShift  5421
                      00496 ;;      694 register type nRegs=1
                      00497 ;;      694 register type nRegs=2
                      00498 ;; ***  mov2w  1381  offset=1
                      00499 ;; >>> /home/sdcc-builder/build/sdcc-build/orig/sdcc/src/pic14/gen.c:1384:mov2w
0050                  00500 _00308_DS_
                      00501         .line   216; "gpio.c"   ret=  ReadRegisterPinValue(DIRECTION_REGISTER_PORTB,pin) ;
0050   3000           00502         MOVLW   0x00
                      00503 ;; >>> /home/sdcc-builder/build/sdcc-build/orig/sdcc/src/pic14/gen.c:1393:movwf
                      00504 ;;      1109 rIdx = r0x1069 
0051   ???? ????      00505         BANKSEL r0x1003
0053   00??           00506         MOVWF   r0x1003
                      00507 ;; ***  mov2w  1381  offset=0
                      00508 ;; >>> /home/sdcc-builder/build/sdcc-build/orig/sdcc/src/pic14/gen.c:1384:mov2w
0054   3001           00509         MOVLW   0x01
                      00510 ;; >>> /home/sdcc-builder/build/sdcc-build/orig/sdcc/src/pic14/gen.c:1393:movwf
                      00511 ;;      1109 rIdx = r0x1066 
0055   00??           00512         MOVWF   r0x1000
                      00513 ;; ***  addSign  861
                      00514 ;;; /home/sdcc-builder/build/sdcc-build/orig/sdcc/src/pic14/genarith.c:862:addSign *{*
                      00515 ;; ***  mov2w  1381  offset=0
                      00516 ;; >>> /home/sdcc-builder/build/sdcc-build/orig/sdcc/src/pic14/gen.c:1386:mov2w
                      00517 ;;      1109 rIdx = r0x1067 
0056   08??           00518         MOVF    r0x1001,W
                      00519 ;; >>> /home/sdcc-builder/build/sdcc-build/orig/sdcc/src/pic14/gen.c:5492:genGenericShift
gpasm-1.4.0 #1106 (Oct  6 2014) obj\Debug\gpi   8-17-2021  02:09:23         PAGE 11


LOC    OBJECT CODE    LINE  SOURCE TEXT
  VALUE

0057   3C00           00520         SUBLW   0x00
                      00521 ;; >>> /home/sdcc-builder/build/sdcc-build/orig/sdcc/src/pic14/gen.c:5494:genGenericShift
0058   1903           00522         BTFSC   STATUS,2
                      00523 ;; >>> /home/sdcc-builder/build/sdcc-build/orig/sdcc/src/pic14/gen.c:5495:genGenericShift
                      00524 ;; ***  popGetLabel  key=20, label offset 206
0059   2???           00525         GOTO    _00326_DS_
                      00526 ;;; /home/sdcc-builder/build/sdcc-build/orig/sdcc/src/pic14/gen.c:5369:genMultiAsm *{*
                      00527 ;; ***  genMultiAsm  5370
                      00528 ;; >>> /home/sdcc-builder/build/sdcc-build/orig/sdcc/src/pic14/gen.c:5387:genMultiAsm
                      00529 ;;      1109 rIdx = r0x1066 
005A                  00530 _00325_DS_
005A   ???? ????      00531         BANKSEL r0x1000
005C   0D??           00532         RLF     r0x1000,F
                      00533 ;; >>> /home/sdcc-builder/build/sdcc-build/orig/sdcc/src/pic14/gen.c:5387:genMultiAsm
                      00534 ;;      1109 rIdx = r0x1069 
005D   0D??           00535         RLF     r0x1003,F
                      00536 ;; >>> /home/sdcc-builder/build/sdcc-build/orig/sdcc/src/pic14/gen.c:5501:genGenericShift
005E   3E01           00537         ADDLW   0x01
                      00538 ;; >>> /home/sdcc-builder/build/sdcc-build/orig/sdcc/src/pic14/gen.c:5502:genGenericShift
005F   1C03           00539         BTFSS   STATUS,0
                      00540 ;; >>> /home/sdcc-builder/build/sdcc-build/orig/sdcc/src/pic14/gen.c:5503:genGenericShift
                      00541 ;; ***  popGetLabel  key=19, label offset 206
0060   2???           00542         GOTO    _00325_DS_
                      00543 ;;; /home/sdcc-builder/build/sdcc-build/orig/sdcc/src/pic14/gen.c:2316:resultRemat *{*
                      00544 ;;; /home/sdcc-builder/build/sdcc-build/orig/sdcc/src/pic14/gen.c:7120:genCast *{*
                      00545 ;; ***  genCast  7121
                      00546 ;; ***  aopForSym 315
                      00547 ;;      327 sym->rname = _TRISB, size = 1
                      00548 ;;      694 register type nRegs=2
                      00549 ;;      line = 7129 result AOP_REG=r0x106A, size=2, left -=-, size=0, right AOP_DIR=_TRISB, size=1
                      00550 ;; >>> /home/sdcc-builder/build/sdcc-build/orig/sdcc/src/pic14/gen.c:7298:genCast
                      00551 ;;      1009
                      00552 ;;      1028  _TRISB   offset=0
0061                  00553 _00326_DS_
0061   ???? ????      00554         BANKSEL _TRISB
0063   08??           00555         MOVF    _TRISB,W
                      00556 ;; >>> /home/sdcc-builder/build/sdcc-build/orig/sdcc/src/pic14/gen.c:7299:genCast
                      00557 ;;      1109 rIdx = r0x106A 
0064   ???? ????      00558         BANKSEL r0x1004
0066   00??           00559         MOVWF   r0x1004
                      00560 ;; ***  addSign  861
                      00561 ;;; /home/sdcc-builder/build/sdcc-build/orig/sdcc/src/pic14/genarith.c:862:addSign *{*
                      00562 ;; >>> /home/sdcc-builder/build/sdcc-build/orig/sdcc/src/pic14/genarith.c:881:addSign
                      00563 ;;      1109 rIdx = r0x106B 
0067   01??           00564         CLRF    r0x1005
                      00565 ;;; /home/sdcc-builder/build/sdcc-build/orig/sdcc/src/pic14/gen.c:2316:resultRemat *{*
                      00566 ;;; /home/sdcc-builder/build/sdcc-build/orig/sdcc/src/pic14/gen.c:3919:genAnd *{*
                      00567 ;; ***  genAnd  3920
                      00568 ;;      694 register type nRegs=2
                      00569 ;;      694 register type nRegs=2
                      00570 ;;      694 register type nRegs=2
                      00571 ;;      line = 3955 result AOP_REG=r0x1066, size=2, left AOP_REG=r0x1066, size=2, right AOP_REG=r0x106A,
                             size=2
gpasm-1.4.0 #1106 (Oct  6 2014) obj\Debug\gpi   8-17-2021  02:09:23         PAGE 12


LOC    OBJECT CODE    LINE  SOURCE TEXT
  VALUE

                      00572 ;; >>> /home/sdcc-builder/build/sdcc-build/orig/sdcc/src/pic14/gen.c:4137:genAnd
                      00573 ;;      1109 rIdx = r0x106A 
0068   08??           00574         MOVF    r0x1004,W
                      00575 ;; >>> /home/sdcc-builder/build/sdcc-build/orig/sdcc/src/pic14/gen.c:4138:genAnd
                      00576 ;;      1109 rIdx = r0x1066 
0069   05??           00577         ANDWF   r0x1000,F
                      00578 ;; >>> /home/sdcc-builder/build/sdcc-build/orig/sdcc/src/pic14/gen.c:4137:genAnd
                      00579 ;;      1109 rIdx = r0x106B 
006A   3000           00580         MOVLW   0x00
                      00581 ;; >>> /home/sdcc-builder/build/sdcc-build/orig/sdcc/src/pic14/gen.c:4138:genAnd
                      00582 ;;      1109 rIdx = r0x1069 
006B   05??           00583         ANDWF   r0x1003,F
                      00584 ;;; /home/sdcc-builder/build/sdcc-build/orig/sdcc/src/pic14/gen.c:2316:resultRemat *{*
                      00585 ;;; /home/sdcc-builder/build/sdcc-build/orig/sdcc/src/pic14/gen.c:5418:genGenericShift *{*
                      00586 ;; ***  genGenericShift  5421
                      00587 ;;      694 register type nRegs=1
                      00588 ;;      694 register type nRegs=2
                      00589 ;;      694 register type nRegs=2
                      00590 ;; ***  mov2w  1381  offset=1
                      00591 ;; >>> /home/sdcc-builder/build/sdcc-build/orig/sdcc/src/pic14/gen.c:1386:mov2w
                      00592 ;;      1109 rIdx = r0x1069 
006C   08??           00593         MOVF    r0x1003,W
                      00594 ;; >>> /home/sdcc-builder/build/sdcc-build/orig/sdcc/src/pic14/gen.c:1393:movwf
                      00595 ;;      1109 rIdx = r0x106B 
006D   00??           00596         MOVWF   r0x1005
                      00597 ;; ***  mov2w  1381  offset=0
                      00598 ;; >>> /home/sdcc-builder/build/sdcc-build/orig/sdcc/src/pic14/gen.c:1386:mov2w
                      00599 ;;      1109 rIdx = r0x1066 
006E   08??           00600         MOVF    r0x1000,W
                      00601 ;; >>> /home/sdcc-builder/build/sdcc-build/orig/sdcc/src/pic14/gen.c:1393:movwf
                      00602 ;;      1109 rIdx = r0x106A 
006F   00??           00603         MOVWF   r0x1004
                      00604 ;; ***  addSign  861
                      00605 ;;; /home/sdcc-builder/build/sdcc-build/orig/sdcc/src/pic14/genarith.c:862:addSign *{*
                      00606 ;; ***  mov2w  1381  offset=0
                      00607 ;; >>> /home/sdcc-builder/build/sdcc-build/orig/sdcc/src/pic14/gen.c:1386:mov2w
                      00608 ;;      1109 rIdx = r0x1067 
0070   08??           00609         MOVF    r0x1001,W
                      00610 ;; >>> /home/sdcc-builder/build/sdcc-build/orig/sdcc/src/pic14/gen.c:5492:genGenericShift
0071   3C00           00611         SUBLW   0x00
                      00612 ;; >>> /home/sdcc-builder/build/sdcc-build/orig/sdcc/src/pic14/gen.c:5494:genGenericShift
0072   1903           00613         BTFSC   STATUS,2
                      00614 ;; >>> /home/sdcc-builder/build/sdcc-build/orig/sdcc/src/pic14/gen.c:5495:genGenericShift
                      00615 ;; ***  popGetLabel  key=22, label offset 206
0073   2???           00616         GOTO    _00328_DS_
                      00617 ;;; /home/sdcc-builder/build/sdcc-build/orig/sdcc/src/pic14/gen.c:5400:loadSignToC *{*
                      00618 ;; >>> /home/sdcc-builder/build/sdcc-build/orig/sdcc/src/pic14/gen.c:5403:loadSignToC
0074                  00619 _00327_DS_
0074   1003           00620         BCF     STATUS,0
                      00621 ;; >>> /home/sdcc-builder/build/sdcc-build/orig/sdcc/src/pic14/gen.c:5404:loadSignToC
0075   ???? ????      00622         BANKSEL r0x1005
0077   1B??           00623         BTFSC   r0x1005,7
                      00624 ;; >>> /home/sdcc-builder/build/sdcc-build/orig/sdcc/src/pic14/gen.c:5405:loadSignToC
gpasm-1.4.0 #1106 (Oct  6 2014) obj\Debug\gpi   8-17-2021  02:09:23         PAGE 13


LOC    OBJECT CODE    LINE  SOURCE TEXT
  VALUE

0078   1403           00625         BSF     STATUS,0
                      00626 ;;; /home/sdcc-builder/build/sdcc-build/orig/sdcc/src/pic14/gen.c:5369:genMultiAsm *{*
                      00627 ;; ***  genMultiAsm  5370
                      00628 ;; >>> /home/sdcc-builder/build/sdcc-build/orig/sdcc/src/pic14/gen.c:5387:genMultiAsm
                      00629 ;;      1109 rIdx = r0x106B 
0079   0C??           00630         RRF     r0x1005,F
                      00631 ;; >>> /home/sdcc-builder/build/sdcc-build/orig/sdcc/src/pic14/gen.c:5387:genMultiAsm
                      00632 ;;      1109 rIdx = r0x106A 
007A   0C??           00633         RRF     r0x1004,F
                      00634 ;; >>> /home/sdcc-builder/build/sdcc-build/orig/sdcc/src/pic14/gen.c:5501:genGenericShift
007B   3E01           00635         ADDLW   0x01
                      00636 ;; >>> /home/sdcc-builder/build/sdcc-build/orig/sdcc/src/pic14/gen.c:5502:genGenericShift
007C   1C03           00637         BTFSS   STATUS,0
                      00638 ;; >>> /home/sdcc-builder/build/sdcc-build/orig/sdcc/src/pic14/gen.c:5503:genGenericShift
                      00639 ;; ***  popGetLabel  key=21, label offset 206
007D   2???           00640         GOTO    _00327_DS_
                      00641 ;;; /home/sdcc-builder/build/sdcc-build/orig/sdcc/src/pic14/gen.c:2316:resultRemat *{*
                      00642 ;;; /home/sdcc-builder/build/sdcc-build/orig/sdcc/src/pic14/gen.c:7120:genCast *{*
                      00643 ;; ***  genCast  7121
                      00644 ;;      694 register type nRegs=2
                      00645 ;;      694 register type nRegs=1
                      00646 ;;      line = 7129 result AOP_REG=r0x1068, size=1, left -=-, size=0, right AOP_REG=r0x106A, size=2
                      00647 ;; ***  genCast  7253
                      00648 ;; >>> /home/sdcc-builder/build/sdcc-build/orig/sdcc/src/pic14/gen.c:7277:genCast
                      00649 ;;      1109 rIdx = r0x106A 
007E                  00650 _00328_DS_
007E   ???? ????      00651         BANKSEL r0x1004
0080   08??           00652         MOVF    r0x1004,W
                      00653 ;; >>> /home/sdcc-builder/build/sdcc-build/orig/sdcc/src/pic14/gen.c:7278:genCast
                      00654 ;;      1109 rIdx = r0x1068 
0081   00??           00655         MOVWF   r0x1002
                      00656 ;;; /home/sdcc-builder/build/sdcc-build/orig/sdcc/src/pic14/gen.c:2316:resultRemat *{*
                      00657 ;;; /home/sdcc-builder/build/sdcc-build/orig/sdcc/src/pic14/gen.c:2778:genGoto *{*
                      00658 ;; >>> /home/sdcc-builder/build/sdcc-build/orig/sdcc/src/pic14/gen.c:2780:genGoto
                      00659 ;; ***  popGetLabel  key=7, label offset 206
                      00660         .line   217; "gpio.c"   break;
0082   2???           00661         GOTO    _00313_DS_
                      00662 ;;; /home/sdcc-builder/build/sdcc-build/orig/sdcc/src/pic14/gen.c:2316:resultRemat *{*
                      00663 ;;; /home/sdcc-builder/build/sdcc-build/orig/sdcc/src/pic14/gen.c:2760:genLabel *{*
                      00664 ;; ***  genLabel  2763
                      00665 ;;; /home/sdcc-builder/build/sdcc-build/orig/sdcc/src/pic14/gen.c:2316:resultRemat *{*
                      00666 ;;; /home/sdcc-builder/build/sdcc-build/orig/sdcc/src/pic14/gen.c:5418:genGenericShift *{*
                      00667 ;; ***  genGenericShift  5421
                      00668 ;;      694 register type nRegs=1
                      00669 ;;      694 register type nRegs=2
                      00670 ;; ***  mov2w  1381  offset=1
                      00671 ;; >>> /home/sdcc-builder/build/sdcc-build/orig/sdcc/src/pic14/gen.c:1384:mov2w
0083                  00672 _00309_DS_
                      00673         .line   219; "gpio.c"   ret=  ReadRegisterPinValue(DIRECTION_REGISTER_PORTC,pin) ;
0083   3000           00674         MOVLW   0x00
                      00675 ;; >>> /home/sdcc-builder/build/sdcc-build/orig/sdcc/src/pic14/gen.c:1393:movwf
                      00676 ;;      1109 rIdx = r0x1069 
0084   ???? ????      00677         BANKSEL r0x1003
gpasm-1.4.0 #1106 (Oct  6 2014) obj\Debug\gpi   8-17-2021  02:09:23         PAGE 14


LOC    OBJECT CODE    LINE  SOURCE TEXT
  VALUE

0086   00??           00678         MOVWF   r0x1003
                      00679 ;; ***  mov2w  1381  offset=0
                      00680 ;; >>> /home/sdcc-builder/build/sdcc-build/orig/sdcc/src/pic14/gen.c:1384:mov2w
0087   3001           00681         MOVLW   0x01
                      00682 ;; >>> /home/sdcc-builder/build/sdcc-build/orig/sdcc/src/pic14/gen.c:1393:movwf
                      00683 ;;      1109 rIdx = r0x1066 
0088   00??           00684         MOVWF   r0x1000
                      00685 ;; ***  addSign  861
                      00686 ;;; /home/sdcc-builder/build/sdcc-build/orig/sdcc/src/pic14/genarith.c:862:addSign *{*
                      00687 ;; ***  mov2w  1381  offset=0
                      00688 ;; >>> /home/sdcc-builder/build/sdcc-build/orig/sdcc/src/pic14/gen.c:1386:mov2w
                      00689 ;;      1109 rIdx = r0x1067 
0089   08??           00690         MOVF    r0x1001,W
                      00691 ;; >>> /home/sdcc-builder/build/sdcc-build/orig/sdcc/src/pic14/gen.c:5492:genGenericShift
008A   3C00           00692         SUBLW   0x00
                      00693 ;; >>> /home/sdcc-builder/build/sdcc-build/orig/sdcc/src/pic14/gen.c:5494:genGenericShift
008B   1903           00694         BTFSC   STATUS,2
                      00695 ;; >>> /home/sdcc-builder/build/sdcc-build/orig/sdcc/src/pic14/gen.c:5495:genGenericShift
                      00696 ;; ***  popGetLabel  key=24, label offset 206
008C   2???           00697         GOTO    _00330_DS_
                      00698 ;;; /home/sdcc-builder/build/sdcc-build/orig/sdcc/src/pic14/gen.c:5369:genMultiAsm *{*
                      00699 ;; ***  genMultiAsm  5370
                      00700 ;; >>> /home/sdcc-builder/build/sdcc-build/orig/sdcc/src/pic14/gen.c:5387:genMultiAsm
                      00701 ;;      1109 rIdx = r0x1066 
008D                  00702 _00329_DS_
008D   ???? ????      00703         BANKSEL r0x1000
008F   0D??           00704         RLF     r0x1000,F
                      00705 ;; >>> /home/sdcc-builder/build/sdcc-build/orig/sdcc/src/pic14/gen.c:5387:genMultiAsm
                      00706 ;;      1109 rIdx = r0x1069 
0090   0D??           00707         RLF     r0x1003,F
                      00708 ;; >>> /home/sdcc-builder/build/sdcc-build/orig/sdcc/src/pic14/gen.c:5501:genGenericShift
0091   3E01           00709         ADDLW   0x01
                      00710 ;; >>> /home/sdcc-builder/build/sdcc-build/orig/sdcc/src/pic14/gen.c:5502:genGenericShift
0092   1C03           00711         BTFSS   STATUS,0
                      00712 ;; >>> /home/sdcc-builder/build/sdcc-build/orig/sdcc/src/pic14/gen.c:5503:genGenericShift
                      00713 ;; ***  popGetLabel  key=23, label offset 206
0093   2???           00714         GOTO    _00329_DS_
                      00715 ;;; /home/sdcc-builder/build/sdcc-build/orig/sdcc/src/pic14/gen.c:2316:resultRemat *{*
                      00716 ;;; /home/sdcc-builder/build/sdcc-build/orig/sdcc/src/pic14/gen.c:7120:genCast *{*
                      00717 ;; ***  genCast  7121
                      00718 ;; ***  aopForSym 315
                      00719 ;;      327 sym->rname = _TRISC, size = 1
                      00720 ;;      694 register type nRegs=2
                      00721 ;;      line = 7129 result AOP_REG=r0x106A, size=2, left -=-, size=0, right AOP_DIR=_TRISC, size=1
                      00722 ;; >>> /home/sdcc-builder/build/sdcc-build/orig/sdcc/src/pic14/gen.c:7298:genCast
                      00723 ;;      1009
                      00724 ;;      1028  _TRISC   offset=0
0094                  00725 _00330_DS_
0094   ???? ????      00726         BANKSEL _TRISC
0096   08??           00727         MOVF    _TRISC,W
                      00728 ;; >>> /home/sdcc-builder/build/sdcc-build/orig/sdcc/src/pic14/gen.c:7299:genCast
                      00729 ;;      1109 rIdx = r0x106A 
0097   ???? ????      00730         BANKSEL r0x1004
gpasm-1.4.0 #1106 (Oct  6 2014) obj\Debug\gpi   8-17-2021  02:09:23         PAGE 15


LOC    OBJECT CODE    LINE  SOURCE TEXT
  VALUE

0099   00??           00731         MOVWF   r0x1004
                      00732 ;; ***  addSign  861
                      00733 ;;; /home/sdcc-builder/build/sdcc-build/orig/sdcc/src/pic14/genarith.c:862:addSign *{*
                      00734 ;; >>> /home/sdcc-builder/build/sdcc-build/orig/sdcc/src/pic14/genarith.c:881:addSign
                      00735 ;;      1109 rIdx = r0x106B 
009A   01??           00736         CLRF    r0x1005
                      00737 ;;; /home/sdcc-builder/build/sdcc-build/orig/sdcc/src/pic14/gen.c:2316:resultRemat *{*
                      00738 ;;; /home/sdcc-builder/build/sdcc-build/orig/sdcc/src/pic14/gen.c:3919:genAnd *{*
                      00739 ;; ***  genAnd  3920
                      00740 ;;      694 register type nRegs=2
                      00741 ;;      694 register type nRegs=2
                      00742 ;;      694 register type nRegs=2
                      00743 ;;      line = 3955 result AOP_REG=r0x1066, size=2, left AOP_REG=r0x1066, size=2, right AOP_REG=r0x106A,
                             size=2
                      00744 ;; >>> /home/sdcc-builder/build/sdcc-build/orig/sdcc/src/pic14/gen.c:4137:genAnd
                      00745 ;;      1109 rIdx = r0x106A 
009B   08??           00746         MOVF    r0x1004,W
                      00747 ;; >>> /home/sdcc-builder/build/sdcc-build/orig/sdcc/src/pic14/gen.c:4138:genAnd
                      00748 ;;      1109 rIdx = r0x1066 
009C   05??           00749         ANDWF   r0x1000,F
                      00750 ;; >>> /home/sdcc-builder/build/sdcc-build/orig/sdcc/src/pic14/gen.c:4137:genAnd
                      00751 ;;      1109 rIdx = r0x106B 
009D   3000           00752         MOVLW   0x00
                      00753 ;; >>> /home/sdcc-builder/build/sdcc-build/orig/sdcc/src/pic14/gen.c:4138:genAnd
                      00754 ;;      1109 rIdx = r0x1069 
009E   05??           00755         ANDWF   r0x1003,F
                      00756 ;;; /home/sdcc-builder/build/sdcc-build/orig/sdcc/src/pic14/gen.c:2316:resultRemat *{*
                      00757 ;;; /home/sdcc-builder/build/sdcc-build/orig/sdcc/src/pic14/gen.c:5418:genGenericShift *{*
                      00758 ;; ***  genGenericShift  5421
                      00759 ;;      694 register type nRegs=1
                      00760 ;;      694 register type nRegs=2
                      00761 ;;      694 register type nRegs=2
                      00762 ;; ***  mov2w  1381  offset=1
                      00763 ;; >>> /home/sdcc-builder/build/sdcc-build/orig/sdcc/src/pic14/gen.c:1386:mov2w
                      00764 ;;      1109 rIdx = r0x1069 
009F   08??           00765         MOVF    r0x1003,W
                      00766 ;; >>> /home/sdcc-builder/build/sdcc-build/orig/sdcc/src/pic14/gen.c:1393:movwf
                      00767 ;;      1109 rIdx = r0x106B 
00A0   00??           00768         MOVWF   r0x1005
                      00769 ;; ***  mov2w  1381  offset=0
                      00770 ;; >>> /home/sdcc-builder/build/sdcc-build/orig/sdcc/src/pic14/gen.c:1386:mov2w
                      00771 ;;      1109 rIdx = r0x1066 
00A1   08??           00772         MOVF    r0x1000,W
                      00773 ;; >>> /home/sdcc-builder/build/sdcc-build/orig/sdcc/src/pic14/gen.c:1393:movwf
                      00774 ;;      1109 rIdx = r0x106A 
00A2   00??           00775         MOVWF   r0x1004
                      00776 ;; ***  addSign  861
                      00777 ;;; /home/sdcc-builder/build/sdcc-build/orig/sdcc/src/pic14/genarith.c:862:addSign *{*
                      00778 ;; ***  mov2w  1381  offset=0
                      00779 ;; >>> /home/sdcc-builder/build/sdcc-build/orig/sdcc/src/pic14/gen.c:1386:mov2w
                      00780 ;;      1109 rIdx = r0x1067 
00A3   08??           00781         MOVF    r0x1001,W
                      00782 ;; >>> /home/sdcc-builder/build/sdcc-build/orig/sdcc/src/pic14/gen.c:5492:genGenericShift
gpasm-1.4.0 #1106 (Oct  6 2014) obj\Debug\gpi   8-17-2021  02:09:23         PAGE 16


LOC    OBJECT CODE    LINE  SOURCE TEXT
  VALUE

00A4   3C00           00783         SUBLW   0x00
                      00784 ;; >>> /home/sdcc-builder/build/sdcc-build/orig/sdcc/src/pic14/gen.c:5494:genGenericShift
00A5   1903           00785         BTFSC   STATUS,2
                      00786 ;; >>> /home/sdcc-builder/build/sdcc-build/orig/sdcc/src/pic14/gen.c:5495:genGenericShift
                      00787 ;; ***  popGetLabel  key=26, label offset 206
00A6   2???           00788         GOTO    _00332_DS_
                      00789 ;;; /home/sdcc-builder/build/sdcc-build/orig/sdcc/src/pic14/gen.c:5400:loadSignToC *{*
                      00790 ;; >>> /home/sdcc-builder/build/sdcc-build/orig/sdcc/src/pic14/gen.c:5403:loadSignToC
00A7                  00791 _00331_DS_
00A7   1003           00792         BCF     STATUS,0
                      00793 ;; >>> /home/sdcc-builder/build/sdcc-build/orig/sdcc/src/pic14/gen.c:5404:loadSignToC
00A8   ???? ????      00794         BANKSEL r0x1005
00AA   1B??           00795         BTFSC   r0x1005,7
                      00796 ;; >>> /home/sdcc-builder/build/sdcc-build/orig/sdcc/src/pic14/gen.c:5405:loadSignToC
00AB   1403           00797         BSF     STATUS,0
                      00798 ;;; /home/sdcc-builder/build/sdcc-build/orig/sdcc/src/pic14/gen.c:5369:genMultiAsm *{*
                      00799 ;; ***  genMultiAsm  5370
                      00800 ;; >>> /home/sdcc-builder/build/sdcc-build/orig/sdcc/src/pic14/gen.c:5387:genMultiAsm
                      00801 ;;      1109 rIdx = r0x106B 
00AC   0C??           00802         RRF     r0x1005,F
                      00803 ;; >>> /home/sdcc-builder/build/sdcc-build/orig/sdcc/src/pic14/gen.c:5387:genMultiAsm
                      00804 ;;      1109 rIdx = r0x106A 
00AD   0C??           00805         RRF     r0x1004,F
                      00806 ;; >>> /home/sdcc-builder/build/sdcc-build/orig/sdcc/src/pic14/gen.c:5501:genGenericShift
00AE   3E01           00807         ADDLW   0x01
                      00808 ;; >>> /home/sdcc-builder/build/sdcc-build/orig/sdcc/src/pic14/gen.c:5502:genGenericShift
00AF   1C03           00809         BTFSS   STATUS,0
                      00810 ;; >>> /home/sdcc-builder/build/sdcc-build/orig/sdcc/src/pic14/gen.c:5503:genGenericShift
                      00811 ;; ***  popGetLabel  key=25, label offset 206
00B0   2???           00812         GOTO    _00331_DS_
                      00813 ;;; /home/sdcc-builder/build/sdcc-build/orig/sdcc/src/pic14/gen.c:2316:resultRemat *{*
                      00814 ;;; /home/sdcc-builder/build/sdcc-build/orig/sdcc/src/pic14/gen.c:7120:genCast *{*
                      00815 ;; ***  genCast  7121
                      00816 ;;      694 register type nRegs=2
                      00817 ;;      694 register type nRegs=1
                      00818 ;;      line = 7129 result AOP_REG=r0x1068, size=1, left -=-, size=0, right AOP_REG=r0x106A, size=2
                      00819 ;; ***  genCast  7253
                      00820 ;; >>> /home/sdcc-builder/build/sdcc-build/orig/sdcc/src/pic14/gen.c:7277:genCast
                      00821 ;;      1109 rIdx = r0x106A 
00B1                  00822 _00332_DS_
00B1   ???? ????      00823         BANKSEL r0x1004
00B3   08??           00824         MOVF    r0x1004,W
                      00825 ;; >>> /home/sdcc-builder/build/sdcc-build/orig/sdcc/src/pic14/gen.c:7278:genCast
                      00826 ;;      1109 rIdx = r0x1068 
00B4   00??           00827         MOVWF   r0x1002
                      00828 ;;; /home/sdcc-builder/build/sdcc-build/orig/sdcc/src/pic14/gen.c:2316:resultRemat *{*
                      00829 ;;; /home/sdcc-builder/build/sdcc-build/orig/sdcc/src/pic14/gen.c:2778:genGoto *{*
                      00830 ;; >>> /home/sdcc-builder/build/sdcc-build/orig/sdcc/src/pic14/gen.c:2780:genGoto
                      00831 ;; ***  popGetLabel  key=7, label offset 206
                      00832         .line   220; "gpio.c"   break;
00B5   2???           00833         GOTO    _00313_DS_
                      00834 ;;; /home/sdcc-builder/build/sdcc-build/orig/sdcc/src/pic14/gen.c:2316:resultRemat *{*
                      00835 ;;; /home/sdcc-builder/build/sdcc-build/orig/sdcc/src/pic14/gen.c:2760:genLabel *{*
gpasm-1.4.0 #1106 (Oct  6 2014) obj\Debug\gpi   8-17-2021  02:09:23         PAGE 17


LOC    OBJECT CODE    LINE  SOURCE TEXT
  VALUE

                      00836 ;; ***  genLabel  2763
                      00837 ;;; /home/sdcc-builder/build/sdcc-build/orig/sdcc/src/pic14/gen.c:2316:resultRemat *{*
                      00838 ;;; /home/sdcc-builder/build/sdcc-build/orig/sdcc/src/pic14/gen.c:5418:genGenericShift *{*
                      00839 ;; ***  genGenericShift  5421
                      00840 ;;      694 register type nRegs=1
                      00841 ;;      694 register type nRegs=2
                      00842 ;; ***  mov2w  1381  offset=1
                      00843 ;; >>> /home/sdcc-builder/build/sdcc-build/orig/sdcc/src/pic14/gen.c:1384:mov2w
00B6                  00844 _00310_DS_
                      00845         .line   222; "gpio.c"   ret=  ReadRegisterPinValue(DIRECTION_REGISTER_PORTD,pin) ;
00B6   3000           00846         MOVLW   0x00
                      00847 ;; >>> /home/sdcc-builder/build/sdcc-build/orig/sdcc/src/pic14/gen.c:1393:movwf
                      00848 ;;      1109 rIdx = r0x1069 
00B7   ???? ????      00849         BANKSEL r0x1003
00B9   00??           00850         MOVWF   r0x1003
                      00851 ;; ***  mov2w  1381  offset=0
                      00852 ;; >>> /home/sdcc-builder/build/sdcc-build/orig/sdcc/src/pic14/gen.c:1384:mov2w
00BA   3001           00853         MOVLW   0x01
                      00854 ;; >>> /home/sdcc-builder/build/sdcc-build/orig/sdcc/src/pic14/gen.c:1393:movwf
                      00855 ;;      1109 rIdx = r0x1066 
00BB   00??           00856         MOVWF   r0x1000
                      00857 ;; ***  addSign  861
                      00858 ;;; /home/sdcc-builder/build/sdcc-build/orig/sdcc/src/pic14/genarith.c:862:addSign *{*
                      00859 ;; ***  mov2w  1381  offset=0
                      00860 ;; >>> /home/sdcc-builder/build/sdcc-build/orig/sdcc/src/pic14/gen.c:1386:mov2w
                      00861 ;;      1109 rIdx = r0x1067 
00BC   08??           00862         MOVF    r0x1001,W
                      00863 ;; >>> /home/sdcc-builder/build/sdcc-build/orig/sdcc/src/pic14/gen.c:5492:genGenericShift
00BD   3C00           00864         SUBLW   0x00
                      00865 ;; >>> /home/sdcc-builder/build/sdcc-build/orig/sdcc/src/pic14/gen.c:5494:genGenericShift
00BE   1903           00866         BTFSC   STATUS,2
                      00867 ;; >>> /home/sdcc-builder/build/sdcc-build/orig/sdcc/src/pic14/gen.c:5495:genGenericShift
                      00868 ;; ***  popGetLabel  key=28, label offset 206
00BF   2???           00869         GOTO    _00334_DS_
                      00870 ;;; /home/sdcc-builder/build/sdcc-build/orig/sdcc/src/pic14/gen.c:5369:genMultiAsm *{*
                      00871 ;; ***  genMultiAsm  5370
                      00872 ;; >>> /home/sdcc-builder/build/sdcc-build/orig/sdcc/src/pic14/gen.c:5387:genMultiAsm
                      00873 ;;      1109 rIdx = r0x1066 
00C0                  00874 _00333_DS_
00C0   ???? ????      00875         BANKSEL r0x1000
00C2   0D??           00876         RLF     r0x1000,F
                      00877 ;; >>> /home/sdcc-builder/build/sdcc-build/orig/sdcc/src/pic14/gen.c:5387:genMultiAsm
                      00878 ;;      1109 rIdx = r0x1069 
00C3   0D??           00879         RLF     r0x1003,F
                      00880 ;; >>> /home/sdcc-builder/build/sdcc-build/orig/sdcc/src/pic14/gen.c:5501:genGenericShift
00C4   3E01           00881         ADDLW   0x01
                      00882 ;; >>> /home/sdcc-builder/build/sdcc-build/orig/sdcc/src/pic14/gen.c:5502:genGenericShift
00C5   1C03           00883         BTFSS   STATUS,0
                      00884 ;; >>> /home/sdcc-builder/build/sdcc-build/orig/sdcc/src/pic14/gen.c:5503:genGenericShift
                      00885 ;; ***  popGetLabel  key=27, label offset 206
00C6   2???           00886         GOTO    _00333_DS_
                      00887 ;;; /home/sdcc-builder/build/sdcc-build/orig/sdcc/src/pic14/gen.c:2316:resultRemat *{*
                      00888 ;;; /home/sdcc-builder/build/sdcc-build/orig/sdcc/src/pic14/gen.c:7120:genCast *{*
gpasm-1.4.0 #1106 (Oct  6 2014) obj\Debug\gpi   8-17-2021  02:09:23         PAGE 18


LOC    OBJECT CODE    LINE  SOURCE TEXT
  VALUE

                      00889 ;; ***  genCast  7121
                      00890 ;; ***  aopForSym 315
                      00891 ;;      327 sym->rname = _TRISD, size = 1
                      00892 ;;      694 register type nRegs=2
                      00893 ;;      line = 7129 result AOP_REG=r0x106A, size=2, left -=-, size=0, right AOP_DIR=_TRISD, size=1
                      00894 ;; >>> /home/sdcc-builder/build/sdcc-build/orig/sdcc/src/pic14/gen.c:7298:genCast
                      00895 ;;      1009
                      00896 ;;      1028  _TRISD   offset=0
00C7                  00897 _00334_DS_
00C7   ???? ????      00898         BANKSEL _TRISD
00C9   08??           00899         MOVF    _TRISD,W
                      00900 ;; >>> /home/sdcc-builder/build/sdcc-build/orig/sdcc/src/pic14/gen.c:7299:genCast
                      00901 ;;      1109 rIdx = r0x106A 
00CA   ???? ????      00902         BANKSEL r0x1004
00CC   00??           00903         MOVWF   r0x1004
                      00904 ;; ***  addSign  861
                      00905 ;;; /home/sdcc-builder/build/sdcc-build/orig/sdcc/src/pic14/genarith.c:862:addSign *{*
                      00906 ;; >>> /home/sdcc-builder/build/sdcc-build/orig/sdcc/src/pic14/genarith.c:881:addSign
                      00907 ;;      1109 rIdx = r0x106B 
00CD   01??           00908         CLRF    r0x1005
                      00909 ;;; /home/sdcc-builder/build/sdcc-build/orig/sdcc/src/pic14/gen.c:2316:resultRemat *{*
                      00910 ;;; /home/sdcc-builder/build/sdcc-build/orig/sdcc/src/pic14/gen.c:3919:genAnd *{*
                      00911 ;; ***  genAnd  3920
                      00912 ;;      694 register type nRegs=2
                      00913 ;;      694 register type nRegs=2
                      00914 ;;      694 register type nRegs=2
                      00915 ;;      line = 3955 result AOP_REG=r0x1066, size=2, left AOP_REG=r0x1066, size=2, right AOP_REG=r0x106A,
                             size=2
                      00916 ;; >>> /home/sdcc-builder/build/sdcc-build/orig/sdcc/src/pic14/gen.c:4137:genAnd
                      00917 ;;      1109 rIdx = r0x106A 
00CE   08??           00918         MOVF    r0x1004,W
                      00919 ;; >>> /home/sdcc-builder/build/sdcc-build/orig/sdcc/src/pic14/gen.c:4138:genAnd
                      00920 ;;      1109 rIdx = r0x1066 
00CF   05??           00921         ANDWF   r0x1000,F
                      00922 ;; >>> /home/sdcc-builder/build/sdcc-build/orig/sdcc/src/pic14/gen.c:4137:genAnd
                      00923 ;;      1109 rIdx = r0x106B 
00D0   3000           00924         MOVLW   0x00
                      00925 ;; >>> /home/sdcc-builder/build/sdcc-build/orig/sdcc/src/pic14/gen.c:4138:genAnd
                      00926 ;;      1109 rIdx = r0x1069 
00D1   05??           00927         ANDWF   r0x1003,F
                      00928 ;;; /home/sdcc-builder/build/sdcc-build/orig/sdcc/src/pic14/gen.c:2316:resultRemat *{*
                      00929 ;;; /home/sdcc-builder/build/sdcc-build/orig/sdcc/src/pic14/gen.c:5418:genGenericShift *{*
                      00930 ;; ***  genGenericShift  5421
                      00931 ;;      694 register type nRegs=1
                      00932 ;;      694 register type nRegs=2
                      00933 ;;      694 register type nRegs=2
                      00934 ;; ***  mov2w  1381  offset=1
                      00935 ;; >>> /home/sdcc-builder/build/sdcc-build/orig/sdcc/src/pic14/gen.c:1386:mov2w
                      00936 ;;      1109 rIdx = r0x1069 
00D2   08??           00937         MOVF    r0x1003,W
                      00938 ;; >>> /home/sdcc-builder/build/sdcc-build/orig/sdcc/src/pic14/gen.c:1393:movwf
                      00939 ;;      1109 rIdx = r0x106B 
00D3   00??           00940         MOVWF   r0x1005
gpasm-1.4.0 #1106 (Oct  6 2014) obj\Debug\gpi   8-17-2021  02:09:23         PAGE 19


LOC    OBJECT CODE    LINE  SOURCE TEXT
  VALUE

                      00941 ;; ***  mov2w  1381  offset=0
                      00942 ;; >>> /home/sdcc-builder/build/sdcc-build/orig/sdcc/src/pic14/gen.c:1386:mov2w
                      00943 ;;      1109 rIdx = r0x1066 
00D4   08??           00944         MOVF    r0x1000,W
                      00945 ;; >>> /home/sdcc-builder/build/sdcc-build/orig/sdcc/src/pic14/gen.c:1393:movwf
                      00946 ;;      1109 rIdx = r0x106A 
00D5   00??           00947         MOVWF   r0x1004
                      00948 ;; ***  addSign  861
                      00949 ;;; /home/sdcc-builder/build/sdcc-build/orig/sdcc/src/pic14/genarith.c:862:addSign *{*
                      00950 ;; ***  mov2w  1381  offset=0
                      00951 ;; >>> /home/sdcc-builder/build/sdcc-build/orig/sdcc/src/pic14/gen.c:1386:mov2w
                      00952 ;;      1109 rIdx = r0x1067 
00D6   08??           00953         MOVF    r0x1001,W
                      00954 ;; >>> /home/sdcc-builder/build/sdcc-build/orig/sdcc/src/pic14/gen.c:5492:genGenericShift
00D7   3C00           00955         SUBLW   0x00
                      00956 ;; >>> /home/sdcc-builder/build/sdcc-build/orig/sdcc/src/pic14/gen.c:5494:genGenericShift
00D8   1903           00957         BTFSC   STATUS,2
                      00958 ;; >>> /home/sdcc-builder/build/sdcc-build/orig/sdcc/src/pic14/gen.c:5495:genGenericShift
                      00959 ;; ***  popGetLabel  key=30, label offset 206
00D9   2???           00960         GOTO    _00336_DS_
                      00961 ;;; /home/sdcc-builder/build/sdcc-build/orig/sdcc/src/pic14/gen.c:5400:loadSignToC *{*
                      00962 ;; >>> /home/sdcc-builder/build/sdcc-build/orig/sdcc/src/pic14/gen.c:5403:loadSignToC
00DA                  00963 _00335_DS_
00DA   1003           00964         BCF     STATUS,0
                      00965 ;; >>> /home/sdcc-builder/build/sdcc-build/orig/sdcc/src/pic14/gen.c:5404:loadSignToC
00DB   ???? ????      00966         BANKSEL r0x1005
00DD   1B??           00967         BTFSC   r0x1005,7
                      00968 ;; >>> /home/sdcc-builder/build/sdcc-build/orig/sdcc/src/pic14/gen.c:5405:loadSignToC
00DE   1403           00969         BSF     STATUS,0
                      00970 ;;; /home/sdcc-builder/build/sdcc-build/orig/sdcc/src/pic14/gen.c:5369:genMultiAsm *{*
                      00971 ;; ***  genMultiAsm  5370
                      00972 ;; >>> /home/sdcc-builder/build/sdcc-build/orig/sdcc/src/pic14/gen.c:5387:genMultiAsm
                      00973 ;;      1109 rIdx = r0x106B 
00DF   0C??           00974         RRF     r0x1005,F
                      00975 ;; >>> /home/sdcc-builder/build/sdcc-build/orig/sdcc/src/pic14/gen.c:5387:genMultiAsm
                      00976 ;;      1109 rIdx = r0x106A 
00E0   0C??           00977         RRF     r0x1004,F
                      00978 ;; >>> /home/sdcc-builder/build/sdcc-build/orig/sdcc/src/pic14/gen.c:5501:genGenericShift
00E1   3E01           00979         ADDLW   0x01
                      00980 ;; >>> /home/sdcc-builder/build/sdcc-build/orig/sdcc/src/pic14/gen.c:5502:genGenericShift
00E2   1C03           00981         BTFSS   STATUS,0
                      00982 ;; >>> /home/sdcc-builder/build/sdcc-build/orig/sdcc/src/pic14/gen.c:5503:genGenericShift
                      00983 ;; ***  popGetLabel  key=29, label offset 206
00E3   2???           00984         GOTO    _00335_DS_
                      00985 ;;; /home/sdcc-builder/build/sdcc-build/orig/sdcc/src/pic14/gen.c:2316:resultRemat *{*
                      00986 ;;; /home/sdcc-builder/build/sdcc-build/orig/sdcc/src/pic14/gen.c:7120:genCast *{*
                      00987 ;; ***  genCast  7121
                      00988 ;;      694 register type nRegs=2
                      00989 ;;      694 register type nRegs=1
                      00990 ;;      line = 7129 result AOP_REG=r0x1068, size=1, left -=-, size=0, right AOP_REG=r0x106A, size=2
                      00991 ;; ***  genCast  7253
                      00992 ;; >>> /home/sdcc-builder/build/sdcc-build/orig/sdcc/src/pic14/gen.c:7277:genCast
                      00993 ;;      1109 rIdx = r0x106A 
gpasm-1.4.0 #1106 (Oct  6 2014) obj\Debug\gpi   8-17-2021  02:09:23         PAGE 20


LOC    OBJECT CODE    LINE  SOURCE TEXT
  VALUE

00E4                  00994 _00336_DS_
00E4   ???? ????      00995         BANKSEL r0x1004
00E6   08??           00996         MOVF    r0x1004,W
                      00997 ;; >>> /home/sdcc-builder/build/sdcc-build/orig/sdcc/src/pic14/gen.c:7278:genCast
                      00998 ;;      1109 rIdx = r0x1068 
00E7   00??           00999         MOVWF   r0x1002
                      01000 ;;; /home/sdcc-builder/build/sdcc-build/orig/sdcc/src/pic14/gen.c:2316:resultRemat *{*
                      01001 ;;; /home/sdcc-builder/build/sdcc-build/orig/sdcc/src/pic14/gen.c:2778:genGoto *{*
                      01002 ;; >>> /home/sdcc-builder/build/sdcc-build/orig/sdcc/src/pic14/gen.c:2780:genGoto
                      01003 ;; ***  popGetLabel  key=7, label offset 206
                      01004         .line   223; "gpio.c"   break;
00E8   2???           01005         GOTO    _00313_DS_
                      01006 ;;; /home/sdcc-builder/build/sdcc-build/orig/sdcc/src/pic14/gen.c:2316:resultRemat *{*
                      01007 ;;; /home/sdcc-builder/build/sdcc-build/orig/sdcc/src/pic14/gen.c:2760:genLabel *{*
                      01008 ;; ***  genLabel  2763
                      01009 ;;; /home/sdcc-builder/build/sdcc-build/orig/sdcc/src/pic14/gen.c:2316:resultRemat *{*
                      01010 ;;; /home/sdcc-builder/build/sdcc-build/orig/sdcc/src/pic14/gen.c:5418:genGenericShift *{*
                      01011 ;; ***  genGenericShift  5421
                      01012 ;;      694 register type nRegs=1
                      01013 ;;      694 register type nRegs=2
                      01014 ;; ***  mov2w  1381  offset=1
                      01015 ;; >>> /home/sdcc-builder/build/sdcc-build/orig/sdcc/src/pic14/gen.c:1384:mov2w
00E9                  01016 _00311_DS_
                      01017         .line   225; "gpio.c"   ret=  ReadRegisterPinValue(DIRECTION_REGISTER_PORTE,pin) ;
00E9   3000           01018         MOVLW   0x00
                      01019 ;; >>> /home/sdcc-builder/build/sdcc-build/orig/sdcc/src/pic14/gen.c:1393:movwf
                      01020 ;;      1109 rIdx = r0x1069 
00EA   ???? ????      01021         BANKSEL r0x1003
00EC   00??           01022         MOVWF   r0x1003
                      01023 ;; ***  mov2w  1381  offset=0
                      01024 ;; >>> /home/sdcc-builder/build/sdcc-build/orig/sdcc/src/pic14/gen.c:1384:mov2w
00ED   3001           01025         MOVLW   0x01
                      01026 ;; >>> /home/sdcc-builder/build/sdcc-build/orig/sdcc/src/pic14/gen.c:1393:movwf
                      01027 ;;      1109 rIdx = r0x1066 
00EE   00??           01028         MOVWF   r0x1000
                      01029 ;; ***  addSign  861
                      01030 ;;; /home/sdcc-builder/build/sdcc-build/orig/sdcc/src/pic14/genarith.c:862:addSign *{*
                      01031 ;; ***  mov2w  1381  offset=0
                      01032 ;; >>> /home/sdcc-builder/build/sdcc-build/orig/sdcc/src/pic14/gen.c:1386:mov2w
                      01033 ;;      1109 rIdx = r0x1067 
00EF   08??           01034         MOVF    r0x1001,W
                      01035 ;; >>> /home/sdcc-builder/build/sdcc-build/orig/sdcc/src/pic14/gen.c:5492:genGenericShift
00F0   3C00           01036         SUBLW   0x00
                      01037 ;; >>> /home/sdcc-builder/build/sdcc-build/orig/sdcc/src/pic14/gen.c:5494:genGenericShift
00F1   1903           01038         BTFSC   STATUS,2
                      01039 ;; >>> /home/sdcc-builder/build/sdcc-build/orig/sdcc/src/pic14/gen.c:5495:genGenericShift
                      01040 ;; ***  popGetLabel  key=32, label offset 206
00F2   2???           01041         GOTO    _00338_DS_
                      01042 ;;; /home/sdcc-builder/build/sdcc-build/orig/sdcc/src/pic14/gen.c:5369:genMultiAsm *{*
                      01043 ;; ***  genMultiAsm  5370
                      01044 ;; >>> /home/sdcc-builder/build/sdcc-build/orig/sdcc/src/pic14/gen.c:5387:genMultiAsm
                      01045 ;;      1109 rIdx = r0x1066 
00F3                  01046 _00337_DS_
gpasm-1.4.0 #1106 (Oct  6 2014) obj\Debug\gpi   8-17-2021  02:09:23         PAGE 21


LOC    OBJECT CODE    LINE  SOURCE TEXT
  VALUE

00F3   ???? ????      01047         BANKSEL r0x1000
00F5   0D??           01048         RLF     r0x1000,F
                      01049 ;; >>> /home/sdcc-builder/build/sdcc-build/orig/sdcc/src/pic14/gen.c:5387:genMultiAsm
                      01050 ;;      1109 rIdx = r0x1069 
00F6   0D??           01051         RLF     r0x1003,F
                      01052 ;; >>> /home/sdcc-builder/build/sdcc-build/orig/sdcc/src/pic14/gen.c:5501:genGenericShift
00F7   3E01           01053         ADDLW   0x01
                      01054 ;; >>> /home/sdcc-builder/build/sdcc-build/orig/sdcc/src/pic14/gen.c:5502:genGenericShift
00F8   1C03           01055         BTFSS   STATUS,0
                      01056 ;; >>> /home/sdcc-builder/build/sdcc-build/orig/sdcc/src/pic14/gen.c:5503:genGenericShift
                      01057 ;; ***  popGetLabel  key=31, label offset 206
00F9   2???           01058         GOTO    _00337_DS_
                      01059 ;;; /home/sdcc-builder/build/sdcc-build/orig/sdcc/src/pic14/gen.c:2316:resultRemat *{*
                      01060 ;;; /home/sdcc-builder/build/sdcc-build/orig/sdcc/src/pic14/gen.c:7120:genCast *{*
                      01061 ;; ***  genCast  7121
                      01062 ;; ***  aopForSym 315
                      01063 ;;      327 sym->rname = _TRISE, size = 1
                      01064 ;;      694 register type nRegs=2
                      01065 ;;      line = 7129 result AOP_REG=r0x106A, size=2, left -=-, size=0, right AOP_DIR=_TRISE, size=1
                      01066 ;; >>> /home/sdcc-builder/build/sdcc-build/orig/sdcc/src/pic14/gen.c:7298:genCast
                      01067 ;;      1009
                      01068 ;;      1028  _TRISE   offset=0
00FA                  01069 _00338_DS_
00FA   ???? ????      01070         BANKSEL _TRISE
00FC   08??           01071         MOVF    _TRISE,W
                      01072 ;; >>> /home/sdcc-builder/build/sdcc-build/orig/sdcc/src/pic14/gen.c:7299:genCast
                      01073 ;;      1109 rIdx = r0x106A 
00FD   ???? ????      01074         BANKSEL r0x1004
00FF   00??           01075         MOVWF   r0x1004
                      01076 ;; ***  addSign  861
                      01077 ;;; /home/sdcc-builder/build/sdcc-build/orig/sdcc/src/pic14/genarith.c:862:addSign *{*
                      01078 ;; >>> /home/sdcc-builder/build/sdcc-build/orig/sdcc/src/pic14/genarith.c:881:addSign
                      01079 ;;      1109 rIdx = r0x106B 
0100   01??           01080         CLRF    r0x1005
                      01081 ;;; /home/sdcc-builder/build/sdcc-build/orig/sdcc/src/pic14/gen.c:2316:resultRemat *{*
                      01082 ;;; /home/sdcc-builder/build/sdcc-build/orig/sdcc/src/pic14/gen.c:3919:genAnd *{*
                      01083 ;; ***  genAnd  3920
                      01084 ;;      694 register type nRegs=2
                      01085 ;;      694 register type nRegs=2
                      01086 ;;      694 register type nRegs=2
                      01087 ;;      line = 3955 result AOP_REG=r0x1066, size=2, left AOP_REG=r0x1066, size=2, right AOP_REG=r0x106A,
                             size=2
                      01088 ;; >>> /home/sdcc-builder/build/sdcc-build/orig/sdcc/src/pic14/gen.c:4137:genAnd
                      01089 ;;      1109 rIdx = r0x106A 
0101   08??           01090         MOVF    r0x1004,W
                      01091 ;; >>> /home/sdcc-builder/build/sdcc-build/orig/sdcc/src/pic14/gen.c:4138:genAnd
                      01092 ;;      1109 rIdx = r0x1066 
0102   05??           01093         ANDWF   r0x1000,F
                      01094 ;; >>> /home/sdcc-builder/build/sdcc-build/orig/sdcc/src/pic14/gen.c:4137:genAnd
                      01095 ;;      1109 rIdx = r0x106B 
0103   3000           01096         MOVLW   0x00
                      01097 ;; >>> /home/sdcc-builder/build/sdcc-build/orig/sdcc/src/pic14/gen.c:4138:genAnd
                      01098 ;;      1109 rIdx = r0x1069 
gpasm-1.4.0 #1106 (Oct  6 2014) obj\Debug\gpi   8-17-2021  02:09:23         PAGE 22


LOC    OBJECT CODE    LINE  SOURCE TEXT
  VALUE

0104   05??           01099         ANDWF   r0x1003,F
                      01100 ;;; /home/sdcc-builder/build/sdcc-build/orig/sdcc/src/pic14/gen.c:2316:resultRemat *{*
                      01101 ;;; /home/sdcc-builder/build/sdcc-build/orig/sdcc/src/pic14/gen.c:5418:genGenericShift *{*
                      01102 ;; ***  genGenericShift  5421
                      01103 ;;      694 register type nRegs=1
                      01104 ;;      694 register type nRegs=2
                      01105 ;;      694 register type nRegs=2
                      01106 ;; ***  mov2w  1381  offset=1
                      01107 ;; >>> /home/sdcc-builder/build/sdcc-build/orig/sdcc/src/pic14/gen.c:1386:mov2w
                      01108 ;;      1109 rIdx = r0x1069 
0105   08??           01109         MOVF    r0x1003,W
                      01110 ;; >>> /home/sdcc-builder/build/sdcc-build/orig/sdcc/src/pic14/gen.c:1393:movwf
                      01111 ;;      1109 rIdx = r0x106B 
0106   00??           01112         MOVWF   r0x1005
                      01113 ;; ***  mov2w  1381  offset=0
                      01114 ;; >>> /home/sdcc-builder/build/sdcc-build/orig/sdcc/src/pic14/gen.c:1386:mov2w
                      01115 ;;      1109 rIdx = r0x1066 
0107   08??           01116         MOVF    r0x1000,W
                      01117 ;; >>> /home/sdcc-builder/build/sdcc-build/orig/sdcc/src/pic14/gen.c:1393:movwf
                      01118 ;;      1109 rIdx = r0x106A 
0108   00??           01119         MOVWF   r0x1004
                      01120 ;; ***  addSign  861
                      01121 ;;; /home/sdcc-builder/build/sdcc-build/orig/sdcc/src/pic14/genarith.c:862:addSign *{*
                      01122 ;; ***  mov2w  1381  offset=0
                      01123 ;; >>> /home/sdcc-builder/build/sdcc-build/orig/sdcc/src/pic14/gen.c:1386:mov2w
                      01124 ;;      1109 rIdx = r0x1067 
0109   08??           01125         MOVF    r0x1001,W
                      01126 ;; >>> /home/sdcc-builder/build/sdcc-build/orig/sdcc/src/pic14/gen.c:5492:genGenericShift
010A   3C00           01127         SUBLW   0x00
                      01128 ;; >>> /home/sdcc-builder/build/sdcc-build/orig/sdcc/src/pic14/gen.c:5494:genGenericShift
010B   1903           01129         BTFSC   STATUS,2
                      01130 ;; >>> /home/sdcc-builder/build/sdcc-build/orig/sdcc/src/pic14/gen.c:5495:genGenericShift
                      01131 ;; ***  popGetLabel  key=34, label offset 206
010C   2???           01132         GOTO    _00340_DS_
                      01133 ;;; /home/sdcc-builder/build/sdcc-build/orig/sdcc/src/pic14/gen.c:5400:loadSignToC *{*
                      01134 ;; >>> /home/sdcc-builder/build/sdcc-build/orig/sdcc/src/pic14/gen.c:5403:loadSignToC
010D                  01135 _00339_DS_
010D   1003           01136         BCF     STATUS,0
                      01137 ;; >>> /home/sdcc-builder/build/sdcc-build/orig/sdcc/src/pic14/gen.c:5404:loadSignToC
010E   ???? ????      01138         BANKSEL r0x1005
0110   1B??           01139         BTFSC   r0x1005,7
                      01140 ;; >>> /home/sdcc-builder/build/sdcc-build/orig/sdcc/src/pic14/gen.c:5405:loadSignToC
0111   1403           01141         BSF     STATUS,0
                      01142 ;;; /home/sdcc-builder/build/sdcc-build/orig/sdcc/src/pic14/gen.c:5369:genMultiAsm *{*
                      01143 ;; ***  genMultiAsm  5370
                      01144 ;; >>> /home/sdcc-builder/build/sdcc-build/orig/sdcc/src/pic14/gen.c:5387:genMultiAsm
                      01145 ;;      1109 rIdx = r0x106B 
0112   0C??           01146         RRF     r0x1005,F
                      01147 ;; >>> /home/sdcc-builder/build/sdcc-build/orig/sdcc/src/pic14/gen.c:5387:genMultiAsm
                      01148 ;;      1109 rIdx = r0x106A 
0113   0C??           01149         RRF     r0x1004,F
                      01150 ;; >>> /home/sdcc-builder/build/sdcc-build/orig/sdcc/src/pic14/gen.c:5501:genGenericShift
0114   3E01           01151         ADDLW   0x01
gpasm-1.4.0 #1106 (Oct  6 2014) obj\Debug\gpi   8-17-2021  02:09:23         PAGE 23


LOC    OBJECT CODE    LINE  SOURCE TEXT
  VALUE

                      01152 ;; >>> /home/sdcc-builder/build/sdcc-build/orig/sdcc/src/pic14/gen.c:5502:genGenericShift
0115   1C03           01153         BTFSS   STATUS,0
                      01154 ;; >>> /home/sdcc-builder/build/sdcc-build/orig/sdcc/src/pic14/gen.c:5503:genGenericShift
                      01155 ;; ***  popGetLabel  key=33, label offset 206
0116   2???           01156         GOTO    _00339_DS_
                      01157 ;;; /home/sdcc-builder/build/sdcc-build/orig/sdcc/src/pic14/gen.c:2316:resultRemat *{*
                      01158 ;;; /home/sdcc-builder/build/sdcc-build/orig/sdcc/src/pic14/gen.c:7120:genCast *{*
                      01159 ;; ***  genCast  7121
                      01160 ;;      694 register type nRegs=2
                      01161 ;;      694 register type nRegs=1
                      01162 ;;      line = 7129 result AOP_REG=r0x1068, size=1, left -=-, size=0, right AOP_REG=r0x106A, size=2
                      01163 ;; ***  genCast  7253
                      01164 ;; >>> /home/sdcc-builder/build/sdcc-build/orig/sdcc/src/pic14/gen.c:7277:genCast
                      01165 ;;      1109 rIdx = r0x106A 
0117                  01166 _00340_DS_
0117   ???? ????      01167         BANKSEL r0x1004
0119   08??           01168         MOVF    r0x1004,W
                      01169 ;; >>> /home/sdcc-builder/build/sdcc-build/orig/sdcc/src/pic14/gen.c:7278:genCast
                      01170 ;;      1109 rIdx = r0x1068 
011A   00??           01171         MOVWF   r0x1002
                      01172 ;;; /home/sdcc-builder/build/sdcc-build/orig/sdcc/src/pic14/gen.c:2316:resultRemat *{*
                      01173 ;;; /home/sdcc-builder/build/sdcc-build/orig/sdcc/src/pic14/gen.c:2760:genLabel *{*
                      01174 ;; ***  genLabel  2763
                      01175 ;;; /home/sdcc-builder/build/sdcc-build/orig/sdcc/src/pic14/gen.c:2316:resultRemat *{*
                      01176 ;;; /home/sdcc-builder/build/sdcc-build/orig/sdcc/src/pic14/gen.c:2683:genRet *{*
                      01177 ;; ***  genRet  2685
                      01178 ;;      694 register type nRegs=1
                      01179 ;;; /home/sdcc-builder/build/sdcc-build/orig/sdcc/src/pic14/gen.c:1343:mov2w_op *{*
                      01180 ;; ***  mov2w  1381  offset=0
                      01181 ;; >>> /home/sdcc-builder/build/sdcc-build/orig/sdcc/src/pic14/gen.c:1386:mov2w
                      01182 ;;      1109 rIdx = r0x1068 
011B                  01183 _00313_DS_
                      01184         .line   231; "gpio.c"   return ret ;
011B   ???? ????      01185         BANKSEL r0x1002
011D   08??           01186         MOVF    r0x1002,W
                      01187 ;;; /home/sdcc-builder/build/sdcc-build/orig/sdcc/src/pic14/gen.c:2316:resultRemat *{*
                      01188 ;;; /home/sdcc-builder/build/sdcc-build/orig/sdcc/src/pic14/gen.c:2760:genLabel *{*
                      01189 ;; ***  genLabel  2763
                      01190 ;;; /home/sdcc-builder/build/sdcc-build/orig/sdcc/src/pic14/gen.c:2316:resultRemat *{*
                      01191 ;;; /home/sdcc-builder/build/sdcc-build/orig/sdcc/src/pic14/gen.c:2528:genEndFunction *{*
                      01192 ;; ***  genEndFunction  2530
011E   0008           01193         RETURN  
                      01194 ; exit point of _GPIO_GetPinDirection
                      01195 
                      01196 ;***
                      01197 ;  pBlock Stats: dbName = C
                      01198 ;***
                      01199 ;entry:  _GPIO_GetPinState      ;Function start
                      01200 ; 2 exit points
                      01201 ;has an exit
                      01202 ;7 compiler assigned registers:
                      01203 ;   r0x1006
                      01204 ;   STK00
gpasm-1.4.0 #1106 (Oct  6 2014) obj\Debug\gpi   8-17-2021  02:09:23         PAGE 24


LOC    OBJECT CODE    LINE  SOURCE TEXT
  VALUE

                      01205 ;   r0x1007
                      01206 ;   r0x1008
                      01207 ;   r0x1009
                      01208 ;   r0x100A
                      01209 ;   r0x100B
                      01210 ;; Starting pCode block
                      01211 ;;; /home/sdcc-builder/build/sdcc-build/orig/sdcc/src/pic14/gen.c:2316:resultRemat *{*
                      01212 ;;; /home/sdcc-builder/build/sdcc-build/orig/sdcc/src/pic14/gen.c:2760:genLabel *{*
                      01213 ;; ***  genLabel  2763
                      01214 ;;; /home/sdcc-builder/build/sdcc-build/orig/sdcc/src/pic14/gen.c:2316:resultRemat *{*
                      01215 ;;; /home/sdcc-builder/build/sdcc-build/orig/sdcc/src/pic14/gen.c:2340:genFunction *{*
                      01216 ;; ***  genFunction  2342 curr label offset=150previous max_key=14 
011F                  01217 _GPIO_GetPinState       ;Function start
                      01218 ; 2 exit points
                      01219 ;;; /home/sdcc-builder/build/sdcc-build/orig/sdcc/src/pic14/gen.c:2316:resultRemat *{*
                      01220 ;;; /home/sdcc-builder/build/sdcc-build/orig/sdcc/src/pic14/gen.c:7358:genReceive *{*
                      01221 ;; ***  genReceive  7359
                      01222 ;;      694 register type nRegs=1
                      01223 ;;; /home/sdcc-builder/build/sdcc-build/orig/sdcc/src/pic14/gen.c:1907:assignResultValue *{*
                      01224 ;; ***  assignResultValue  1909
                      01225 ;;      line = 1911 result -=-, size=0, left AOP_REG=r0x1060, size=1, right -=-, size=0
                      01226 ;; >>> /home/sdcc-builder/build/sdcc-build/orig/sdcc/src/pic14/gen.c:1393:movwf
                      01227 ;;      1109 rIdx = r0x1060 
                      01228         .line   181; "gpio.c"   tSTATE GPIO_GetPinState(tPORT port , tPIN pin)
011F   ???? ????      01229         BANKSEL r0x1006
0121   00??           01230         MOVWF   r0x1006
                      01231 ;;; /home/sdcc-builder/build/sdcc-build/orig/sdcc/src/pic14/gen.c:2316:resultRemat *{*
                      01232 ;;; /home/sdcc-builder/build/sdcc-build/orig/sdcc/src/pic14/gen.c:7358:genReceive *{*
                      01233 ;; ***  genReceive  7359
                      01234 ;;      694 register type nRegs=1
                      01235 ;;; /home/sdcc-builder/build/sdcc-build/orig/sdcc/src/pic14/gen.c:1907:assignResultValue *{*
                      01236 ;; ***  assignResultValue  1909
                      01237 ;;      line = 1911 result -=-, size=0, left AOP_REG=r0x1061, size=1, right -=-, size=0
                      01238 ;; >>> /home/sdcc-builder/build/sdcc-build/orig/sdcc/src/pic14/gen.c:1423:get_returnvalue
                      01239 ;; ***  popRegFromIdx,1042  , rIdx=0x7f
0122   08??           01240         MOVF    STK00,W
                      01241 ;; >>> /home/sdcc-builder/build/sdcc-build/orig/sdcc/src/pic14/gen.c:1393:movwf
                      01242 ;;      1109 rIdx = r0x1061 
0123   00??           01243         MOVWF   r0x1007
                      01244 ;;; /home/sdcc-builder/build/sdcc-build/orig/sdcc/src/pic14/gen.c:2316:resultRemat *{*
                      01245 ;;; /home/sdcc-builder/build/sdcc-build/orig/sdcc/src/pic14/gen.c:6927:genAssign *{*
                      01246 ;; ***  genAssign  6928
                      01247 ;;      694 register type nRegs=1
                      01248 ;;      line = 6937 result AOP_REG=r0x1062, size=1, left -=-, size=0, right AOP_LIT=0x00, size=1
                      01249 ;; ***  genAssign  7023
                      01250 ;; >>> /home/sdcc-builder/build/sdcc-build/orig/sdcc/src/pic14/gen.c:7035:genAssign
                      01251 ;;      1109 rIdx = r0x1062 
                      01252         .line   183; "gpio.c"   tSTATE ret = LOW ;
0124   01??           01253         CLRF    r0x1008
                      01254 ;;; /home/sdcc-builder/build/sdcc-build/orig/sdcc/src/pic14/gen.c:2316:resultRemat *{*
                      01255 ;;; /home/sdcc-builder/build/sdcc-build/orig/sdcc/src/pic14/gen.c:3547:genCmpGt *{*
                      01256 ;; ***  genCmpGt  3548
                      01257 ;;      694 register type nRegs=1
gpasm-1.4.0 #1106 (Oct  6 2014) obj\Debug\gpi   8-17-2021  02:09:23         PAGE 25


LOC    OBJECT CODE    LINE  SOURCE TEXT
  VALUE

                      01258 ;;; /home/sdcc-builder/build/sdcc-build/orig/sdcc/src/pic14/gen.c:3294:genCmp *{*
                      01259 ;;swapping arguments (AOP_TYPEs 1/2)
                      01260 ;;unsigned compare: left >= lit(0x5=5), size=1
                      01261 ;; >>> /home/sdcc-builder/build/sdcc-build/orig/sdcc/src/pic14/gen.c:3265:pic14_mov2w_regOrLit
                      01262         .line   184; "gpio.c"   switch(port)
0125   3005           01263         MOVLW   0x05
                      01264 ;; >>> /home/sdcc-builder/build/sdcc-build/orig/sdcc/src/pic14/gen.c:3432:genCmp
                      01265 ;;      1109 rIdx = r0x1060 
0126   02??           01266         SUBWF   r0x1006,W
                      01267 ;;; /home/sdcc-builder/build/sdcc-build/orig/sdcc/src/pic14/gen.c:3237:genSkipc *{*
                      01268 ;; >>> /home/sdcc-builder/build/sdcc-build/orig/sdcc/src/pic14/gen.c:3242:genSkipc
0127   1803           01269         BTFSC   STATUS,0
                      01270 ;; >>> /home/sdcc-builder/build/sdcc-build/orig/sdcc/src/pic14/gen.c:3246:genSkipc
                      01271 ;; ***  popGetLabel  key=7, label offset 168
0128   2???           01272         GOTO    _00275_DS_
                      01273 ;;genSkipc:3247: created from rifx:027A5DF4
                      01274 ;;; /home/sdcc-builder/build/sdcc-build/orig/sdcc/src/pic14/gen.c:2316:resultRemat *{*
                      01275 ;;; /home/sdcc-builder/build/sdcc-build/orig/sdcc/src/pic14/gen.c:2316:resultRemat *{*
                      01276 ;;; /home/sdcc-builder/build/sdcc-build/orig/sdcc/src/pic14/gen.c:7071:genJumpTab *{*
                      01277 ;; ***  genJumpTab  7072
                      01278 ;;      694 register type nRegs=1
                      01279 ;; >>> /home/sdcc-builder/build/sdcc-build/orig/sdcc/src/pic14/gen.c:7087:genJumpTab
                      01280 ;; ***  popGetLabel  key=14, label offset 168
0129   30??           01281         MOVLW   HIGH(_00282_DS_)
                      01282 ;; >>> /home/sdcc-builder/build/sdcc-build/orig/sdcc/src/pic14/gen.c:7088:genJumpTab
012A   1283 1303      01283         BANKSEL PCLATH
012C   008A           01284         MOVWF   PCLATH
                      01285 ;; >>> /home/sdcc-builder/build/sdcc-build/orig/sdcc/src/pic14/gen.c:7089:genJumpTab
                      01286 ;; ***  popGetLabel  key=14, label offset 168
012D   30??           01287         MOVLW   _00282_DS_
                      01288 ;; >>> /home/sdcc-builder/build/sdcc-build/orig/sdcc/src/pic14/gen.c:7090:genJumpTab
                      01289 ;;      1109 rIdx = r0x1060 
012E   ???? ????      01290         BANKSEL r0x1006
0130   07??           01291         ADDWF   r0x1006,W
                      01292 ;; >>> /home/sdcc-builder/build/sdcc-build/orig/sdcc/src/pic14/gen.c:7091:genJumpTab
0131   1C03           01293         BTFSS   STATUS,0
0132   2???           01294         GOTO    _00002_DS_
                      01295 ;; >>> /home/sdcc-builder/build/sdcc-build/orig/sdcc/src/pic14/gen.c:7092:genJumpTab
0133   1283 1303      01296         BANKSEL PCLATH
0135   0A8A           01297         INCF    PCLATH,F
                      01298 ;; >>> /home/sdcc-builder/build/sdcc-build/orig/sdcc/src/pic14/gen.c:7093:genJumpTab
0136                  01299 _00002_DS_
0136   0082           01300         MOVWF   PCL
                      01301 ;; >>> /home/sdcc-builder/build/sdcc-build/orig/sdcc/src/pic14/gen.c:7102:genJumpTab
                      01302 ;; ***  popGetLabel  key=1, label offset 168
0137                  01303 _00282_DS_
0137   2???           01304         GOTO    _00269_DS_
                      01305 ;; >>> /home/sdcc-builder/build/sdcc-build/orig/sdcc/src/pic14/gen.c:7102:genJumpTab
                      01306 ;; ***  popGetLabel  key=2, label offset 168
0138   2???           01307         GOTO    _00270_DS_
                      01308 ;; >>> /home/sdcc-builder/build/sdcc-build/orig/sdcc/src/pic14/gen.c:7102:genJumpTab
                      01309 ;; ***  popGetLabel  key=3, label offset 168
0139   2???           01310         GOTO    _00271_DS_
gpasm-1.4.0 #1106 (Oct  6 2014) obj\Debug\gpi   8-17-2021  02:09:23         PAGE 26


LOC    OBJECT CODE    LINE  SOURCE TEXT
  VALUE

                      01311 ;; >>> /home/sdcc-builder/build/sdcc-build/orig/sdcc/src/pic14/gen.c:7102:genJumpTab
                      01312 ;; ***  popGetLabel  key=4, label offset 168
013A   2???           01313         GOTO    _00272_DS_
                      01314 ;; >>> /home/sdcc-builder/build/sdcc-build/orig/sdcc/src/pic14/gen.c:7102:genJumpTab
                      01315 ;; ***  popGetLabel  key=5, label offset 168
013B   2???           01316         GOTO    _00273_DS_
                      01317 ;;; /home/sdcc-builder/build/sdcc-build/orig/sdcc/src/pic14/gen.c:2316:resultRemat *{*
                      01318 ;;; /home/sdcc-builder/build/sdcc-build/orig/sdcc/src/pic14/gen.c:2760:genLabel *{*
                      01319 ;; ***  genLabel  2763
                      01320 ;;; /home/sdcc-builder/build/sdcc-build/orig/sdcc/src/pic14/gen.c:2316:resultRemat *{*
                      01321 ;;; /home/sdcc-builder/build/sdcc-build/orig/sdcc/src/pic14/gen.c:5418:genGenericShift *{*
                      01322 ;; ***  genGenericShift  5421
                      01323 ;;      694 register type nRegs=1
                      01324 ;;      694 register type nRegs=2
                      01325 ;; ***  mov2w  1381  offset=1
                      01326 ;; >>> /home/sdcc-builder/build/sdcc-build/orig/sdcc/src/pic14/gen.c:1384:mov2w
013C                  01327 _00269_DS_
                      01328         .line   187; "gpio.c"   ret=  ReadRegisterPinValue(DATA_REGISTER_READ_PORTA,pin) ;
013C   3000           01329         MOVLW   0x00
                      01330 ;; >>> /home/sdcc-builder/build/sdcc-build/orig/sdcc/src/pic14/gen.c:1393:movwf
                      01331 ;;      1109 rIdx = r0x1063 
013D   ???? ????      01332         BANKSEL r0x1009
013F   00??           01333         MOVWF   r0x1009
                      01334 ;; ***  mov2w  1381  offset=0
                      01335 ;; >>> /home/sdcc-builder/build/sdcc-build/orig/sdcc/src/pic14/gen.c:1384:mov2w
0140   3001           01336         MOVLW   0x01
                      01337 ;; >>> /home/sdcc-builder/build/sdcc-build/orig/sdcc/src/pic14/gen.c:1393:movwf
                      01338 ;;      1109 rIdx = r0x1060 
0141   00??           01339         MOVWF   r0x1006
                      01340 ;; ***  addSign  861
                      01341 ;;; /home/sdcc-builder/build/sdcc-build/orig/sdcc/src/pic14/genarith.c:862:addSign *{*
                      01342 ;; ***  mov2w  1381  offset=0
                      01343 ;; >>> /home/sdcc-builder/build/sdcc-build/orig/sdcc/src/pic14/gen.c:1386:mov2w
                      01344 ;;      1109 rIdx = r0x1061 
0142   08??           01345         MOVF    r0x1007,W
                      01346 ;; >>> /home/sdcc-builder/build/sdcc-build/orig/sdcc/src/pic14/gen.c:5492:genGenericShift
0143   3C00           01347         SUBLW   0x00
                      01348 ;; >>> /home/sdcc-builder/build/sdcc-build/orig/sdcc/src/pic14/gen.c:5494:genGenericShift
0144   1903           01349         BTFSC   STATUS,2
                      01350 ;; >>> /home/sdcc-builder/build/sdcc-build/orig/sdcc/src/pic14/gen.c:5495:genGenericShift
                      01351 ;; ***  popGetLabel  key=16, label offset 168
0145   2???           01352         GOTO    _00284_DS_
                      01353 ;;; /home/sdcc-builder/build/sdcc-build/orig/sdcc/src/pic14/gen.c:5369:genMultiAsm *{*
                      01354 ;; ***  genMultiAsm  5370
                      01355 ;; >>> /home/sdcc-builder/build/sdcc-build/orig/sdcc/src/pic14/gen.c:5387:genMultiAsm
                      01356 ;;      1109 rIdx = r0x1060 
0146                  01357 _00283_DS_
0146   ???? ????      01358         BANKSEL r0x1006
0148   0D??           01359         RLF     r0x1006,F
                      01360 ;; >>> /home/sdcc-builder/build/sdcc-build/orig/sdcc/src/pic14/gen.c:5387:genMultiAsm
                      01361 ;;      1109 rIdx = r0x1063 
0149   0D??           01362         RLF     r0x1009,F
                      01363 ;; >>> /home/sdcc-builder/build/sdcc-build/orig/sdcc/src/pic14/gen.c:5501:genGenericShift
gpasm-1.4.0 #1106 (Oct  6 2014) obj\Debug\gpi   8-17-2021  02:09:23         PAGE 27


LOC    OBJECT CODE    LINE  SOURCE TEXT
  VALUE

014A   3E01           01364         ADDLW   0x01
                      01365 ;; >>> /home/sdcc-builder/build/sdcc-build/orig/sdcc/src/pic14/gen.c:5502:genGenericShift
014B   1C03           01366         BTFSS   STATUS,0
                      01367 ;; >>> /home/sdcc-builder/build/sdcc-build/orig/sdcc/src/pic14/gen.c:5503:genGenericShift
                      01368 ;; ***  popGetLabel  key=15, label offset 168
014C   2???           01369         GOTO    _00283_DS_
                      01370 ;;; /home/sdcc-builder/build/sdcc-build/orig/sdcc/src/pic14/gen.c:2316:resultRemat *{*
                      01371 ;;; /home/sdcc-builder/build/sdcc-build/orig/sdcc/src/pic14/gen.c:7120:genCast *{*
                      01372 ;; ***  genCast  7121
                      01373 ;; ***  aopForSym 315
                      01374 ;;      327 sym->rname = _PORTA, size = 1
                      01375 ;;      694 register type nRegs=2
                      01376 ;;      line = 7129 result AOP_REG=r0x1064, size=2, left -=-, size=0, right AOP_DIR=_PORTA, size=1
                      01377 ;; >>> /home/sdcc-builder/build/sdcc-build/orig/sdcc/src/pic14/gen.c:7298:genCast
                      01378 ;;      1009
                      01379 ;;      1028  _PORTA   offset=0
014D                  01380 _00284_DS_
014D   ???? ????      01381         BANKSEL _PORTA
014F   08??           01382         MOVF    _PORTA,W
                      01383 ;; >>> /home/sdcc-builder/build/sdcc-build/orig/sdcc/src/pic14/gen.c:7299:genCast
                      01384 ;;      1109 rIdx = r0x1064 
0150   ???? ????      01385         BANKSEL r0x100A
0152   00??           01386         MOVWF   r0x100A
                      01387 ;; ***  addSign  861
                      01388 ;;; /home/sdcc-builder/build/sdcc-build/orig/sdcc/src/pic14/genarith.c:862:addSign *{*
                      01389 ;; >>> /home/sdcc-builder/build/sdcc-build/orig/sdcc/src/pic14/genarith.c:881:addSign
                      01390 ;;      1109 rIdx = r0x1065 
0153   01??           01391         CLRF    r0x100B
                      01392 ;;; /home/sdcc-builder/build/sdcc-build/orig/sdcc/src/pic14/gen.c:2316:resultRemat *{*
                      01393 ;;; /home/sdcc-builder/build/sdcc-build/orig/sdcc/src/pic14/gen.c:3919:genAnd *{*
                      01394 ;; ***  genAnd  3920
                      01395 ;;      694 register type nRegs=2
                      01396 ;;      694 register type nRegs=2
                      01397 ;;      694 register type nRegs=2
                      01398 ;;      line = 3955 result AOP_REG=r0x1060, size=2, left AOP_REG=r0x1060, size=2, right AOP_REG=r0x1064,
                             size=2
                      01399 ;; >>> /home/sdcc-builder/build/sdcc-build/orig/sdcc/src/pic14/gen.c:4137:genAnd
                      01400 ;;      1109 rIdx = r0x1064 
0154   08??           01401         MOVF    r0x100A,W
                      01402 ;; >>> /home/sdcc-builder/build/sdcc-build/orig/sdcc/src/pic14/gen.c:4138:genAnd
                      01403 ;;      1109 rIdx = r0x1060 
0155   05??           01404         ANDWF   r0x1006,F
                      01405 ;; >>> /home/sdcc-builder/build/sdcc-build/orig/sdcc/src/pic14/gen.c:4137:genAnd
                      01406 ;;      1109 rIdx = r0x1065 
0156   3000           01407         MOVLW   0x00
                      01408 ;; >>> /home/sdcc-builder/build/sdcc-build/orig/sdcc/src/pic14/gen.c:4138:genAnd
                      01409 ;;      1109 rIdx = r0x1063 
0157   05??           01410         ANDWF   r0x1009,F
                      01411 ;;; /home/sdcc-builder/build/sdcc-build/orig/sdcc/src/pic14/gen.c:2316:resultRemat *{*
                      01412 ;;; /home/sdcc-builder/build/sdcc-build/orig/sdcc/src/pic14/gen.c:5418:genGenericShift *{*
                      01413 ;; ***  genGenericShift  5421
                      01414 ;;      694 register type nRegs=1
                      01415 ;;      694 register type nRegs=2
gpasm-1.4.0 #1106 (Oct  6 2014) obj\Debug\gpi   8-17-2021  02:09:23         PAGE 28


LOC    OBJECT CODE    LINE  SOURCE TEXT
  VALUE

                      01416 ;;      694 register type nRegs=2
                      01417 ;; ***  mov2w  1381  offset=1
                      01418 ;; >>> /home/sdcc-builder/build/sdcc-build/orig/sdcc/src/pic14/gen.c:1386:mov2w
                      01419 ;;      1109 rIdx = r0x1063 
0158   08??           01420         MOVF    r0x1009,W
                      01421 ;; >>> /home/sdcc-builder/build/sdcc-build/orig/sdcc/src/pic14/gen.c:1393:movwf
                      01422 ;;      1109 rIdx = r0x1065 
0159   00??           01423         MOVWF   r0x100B
                      01424 ;; ***  mov2w  1381  offset=0
                      01425 ;; >>> /home/sdcc-builder/build/sdcc-build/orig/sdcc/src/pic14/gen.c:1386:mov2w
                      01426 ;;      1109 rIdx = r0x1060 
015A   08??           01427         MOVF    r0x1006,W
                      01428 ;; >>> /home/sdcc-builder/build/sdcc-build/orig/sdcc/src/pic14/gen.c:1393:movwf
                      01429 ;;      1109 rIdx = r0x1064 
015B   00??           01430         MOVWF   r0x100A
                      01431 ;; ***  addSign  861
                      01432 ;;; /home/sdcc-builder/build/sdcc-build/orig/sdcc/src/pic14/genarith.c:862:addSign *{*
                      01433 ;; ***  mov2w  1381  offset=0
                      01434 ;; >>> /home/sdcc-builder/build/sdcc-build/orig/sdcc/src/pic14/gen.c:1386:mov2w
                      01435 ;;      1109 rIdx = r0x1061 
015C   08??           01436         MOVF    r0x1007,W
                      01437 ;; >>> /home/sdcc-builder/build/sdcc-build/orig/sdcc/src/pic14/gen.c:5492:genGenericShift
015D   3C00           01438         SUBLW   0x00
                      01439 ;; >>> /home/sdcc-builder/build/sdcc-build/orig/sdcc/src/pic14/gen.c:5494:genGenericShift
015E   1903           01440         BTFSC   STATUS,2
                      01441 ;; >>> /home/sdcc-builder/build/sdcc-build/orig/sdcc/src/pic14/gen.c:5495:genGenericShift
                      01442 ;; ***  popGetLabel  key=18, label offset 168
015F   2???           01443         GOTO    _00286_DS_
                      01444 ;;; /home/sdcc-builder/build/sdcc-build/orig/sdcc/src/pic14/gen.c:5400:loadSignToC *{*
                      01445 ;; >>> /home/sdcc-builder/build/sdcc-build/orig/sdcc/src/pic14/gen.c:5403:loadSignToC
0160                  01446 _00285_DS_
0160   1003           01447         BCF     STATUS,0
                      01448 ;; >>> /home/sdcc-builder/build/sdcc-build/orig/sdcc/src/pic14/gen.c:5404:loadSignToC
0161   ???? ????      01449         BANKSEL r0x100B
0163   1B??           01450         BTFSC   r0x100B,7
                      01451 ;; >>> /home/sdcc-builder/build/sdcc-build/orig/sdcc/src/pic14/gen.c:5405:loadSignToC
0164   1403           01452         BSF     STATUS,0
                      01453 ;;; /home/sdcc-builder/build/sdcc-build/orig/sdcc/src/pic14/gen.c:5369:genMultiAsm *{*
                      01454 ;; ***  genMultiAsm  5370
                      01455 ;; >>> /home/sdcc-builder/build/sdcc-build/orig/sdcc/src/pic14/gen.c:5387:genMultiAsm
                      01456 ;;      1109 rIdx = r0x1065 
0165   0C??           01457         RRF     r0x100B,F
                      01458 ;; >>> /home/sdcc-builder/build/sdcc-build/orig/sdcc/src/pic14/gen.c:5387:genMultiAsm
                      01459 ;;      1109 rIdx = r0x1064 
0166   0C??           01460         RRF     r0x100A,F
                      01461 ;; >>> /home/sdcc-builder/build/sdcc-build/orig/sdcc/src/pic14/gen.c:5501:genGenericShift
0167   3E01           01462         ADDLW   0x01
                      01463 ;; >>> /home/sdcc-builder/build/sdcc-build/orig/sdcc/src/pic14/gen.c:5502:genGenericShift
0168   1C03           01464         BTFSS   STATUS,0
                      01465 ;; >>> /home/sdcc-builder/build/sdcc-build/orig/sdcc/src/pic14/gen.c:5503:genGenericShift
                      01466 ;; ***  popGetLabel  key=17, label offset 168
0169   2???           01467         GOTO    _00285_DS_
                      01468 ;;; /home/sdcc-builder/build/sdcc-build/orig/sdcc/src/pic14/gen.c:2316:resultRemat *{*
gpasm-1.4.0 #1106 (Oct  6 2014) obj\Debug\gpi   8-17-2021  02:09:23         PAGE 29


LOC    OBJECT CODE    LINE  SOURCE TEXT
  VALUE

                      01469 ;;; /home/sdcc-builder/build/sdcc-build/orig/sdcc/src/pic14/gen.c:7120:genCast *{*
                      01470 ;; ***  genCast  7121
                      01471 ;;      694 register type nRegs=2
                      01472 ;;      694 register type nRegs=1
                      01473 ;;      line = 7129 result AOP_REG=r0x1062, size=1, left -=-, size=0, right AOP_REG=r0x1064, size=2
                      01474 ;; ***  genCast  7253
                      01475 ;; >>> /home/sdcc-builder/build/sdcc-build/orig/sdcc/src/pic14/gen.c:7277:genCast
                      01476 ;;      1109 rIdx = r0x1064 
016A                  01477 _00286_DS_
016A   ???? ????      01478         BANKSEL r0x100A
016C   08??           01479         MOVF    r0x100A,W
                      01480 ;; >>> /home/sdcc-builder/build/sdcc-build/orig/sdcc/src/pic14/gen.c:7278:genCast
                      01481 ;;      1109 rIdx = r0x1062 
016D   00??           01482         MOVWF   r0x1008
                      01483 ;;; /home/sdcc-builder/build/sdcc-build/orig/sdcc/src/pic14/gen.c:2316:resultRemat *{*
                      01484 ;;; /home/sdcc-builder/build/sdcc-build/orig/sdcc/src/pic14/gen.c:2778:genGoto *{*
                      01485 ;; >>> /home/sdcc-builder/build/sdcc-build/orig/sdcc/src/pic14/gen.c:2780:genGoto
                      01486 ;; ***  popGetLabel  key=7, label offset 168
                      01487         .line   188; "gpio.c"   break;
016E   2???           01488         GOTO    _00275_DS_
                      01489 ;;; /home/sdcc-builder/build/sdcc-build/orig/sdcc/src/pic14/gen.c:2316:resultRemat *{*
                      01490 ;;; /home/sdcc-builder/build/sdcc-build/orig/sdcc/src/pic14/gen.c:2760:genLabel *{*
                      01491 ;; ***  genLabel  2763
                      01492 ;;; /home/sdcc-builder/build/sdcc-build/orig/sdcc/src/pic14/gen.c:2316:resultRemat *{*
                      01493 ;;; /home/sdcc-builder/build/sdcc-build/orig/sdcc/src/pic14/gen.c:5418:genGenericShift *{*
                      01494 ;; ***  genGenericShift  5421
                      01495 ;;      694 register type nRegs=1
                      01496 ;;      694 register type nRegs=2
                      01497 ;; ***  mov2w  1381  offset=1
                      01498 ;; >>> /home/sdcc-builder/build/sdcc-build/orig/sdcc/src/pic14/gen.c:1384:mov2w
016F                  01499 _00270_DS_
                      01500         .line   190; "gpio.c"   ret=  ReadRegisterPinValue(DATA_REGISTER_READ_PORTB,pin) ;
016F   3000           01501         MOVLW   0x00
                      01502 ;; >>> /home/sdcc-builder/build/sdcc-build/orig/sdcc/src/pic14/gen.c:1393:movwf
                      01503 ;;      1109 rIdx = r0x1063 
0170   ???? ????      01504         BANKSEL r0x1009
0172   00??           01505         MOVWF   r0x1009
                      01506 ;; ***  mov2w  1381  offset=0
                      01507 ;; >>> /home/sdcc-builder/build/sdcc-build/orig/sdcc/src/pic14/gen.c:1384:mov2w
0173   3001           01508         MOVLW   0x01
                      01509 ;; >>> /home/sdcc-builder/build/sdcc-build/orig/sdcc/src/pic14/gen.c:1393:movwf
                      01510 ;;      1109 rIdx = r0x1060 
0174   00??           01511         MOVWF   r0x1006
                      01512 ;; ***  addSign  861
                      01513 ;;; /home/sdcc-builder/build/sdcc-build/orig/sdcc/src/pic14/genarith.c:862:addSign *{*
                      01514 ;; ***  mov2w  1381  offset=0
                      01515 ;; >>> /home/sdcc-builder/build/sdcc-build/orig/sdcc/src/pic14/gen.c:1386:mov2w
                      01516 ;;      1109 rIdx = r0x1061 
0175   08??           01517         MOVF    r0x1007,W
                      01518 ;; >>> /home/sdcc-builder/build/sdcc-build/orig/sdcc/src/pic14/gen.c:5492:genGenericShift
0176   3C00           01519         SUBLW   0x00
                      01520 ;; >>> /home/sdcc-builder/build/sdcc-build/orig/sdcc/src/pic14/gen.c:5494:genGenericShift
0177   1903           01521         BTFSC   STATUS,2
gpasm-1.4.0 #1106 (Oct  6 2014) obj\Debug\gpi   8-17-2021  02:09:23         PAGE 30


LOC    OBJECT CODE    LINE  SOURCE TEXT
  VALUE

                      01522 ;; >>> /home/sdcc-builder/build/sdcc-build/orig/sdcc/src/pic14/gen.c:5495:genGenericShift
                      01523 ;; ***  popGetLabel  key=20, label offset 168
0178   2???           01524         GOTO    _00288_DS_
                      01525 ;;; /home/sdcc-builder/build/sdcc-build/orig/sdcc/src/pic14/gen.c:5369:genMultiAsm *{*
                      01526 ;; ***  genMultiAsm  5370
                      01527 ;; >>> /home/sdcc-builder/build/sdcc-build/orig/sdcc/src/pic14/gen.c:5387:genMultiAsm
                      01528 ;;      1109 rIdx = r0x1060 
0179                  01529 _00287_DS_
0179   ???? ????      01530         BANKSEL r0x1006
017B   0D??           01531         RLF     r0x1006,F
                      01532 ;; >>> /home/sdcc-builder/build/sdcc-build/orig/sdcc/src/pic14/gen.c:5387:genMultiAsm
                      01533 ;;      1109 rIdx = r0x1063 
017C   0D??           01534         RLF     r0x1009,F
                      01535 ;; >>> /home/sdcc-builder/build/sdcc-build/orig/sdcc/src/pic14/gen.c:5501:genGenericShift
017D   3E01           01536         ADDLW   0x01
                      01537 ;; >>> /home/sdcc-builder/build/sdcc-build/orig/sdcc/src/pic14/gen.c:5502:genGenericShift
017E   1C03           01538         BTFSS   STATUS,0
                      01539 ;; >>> /home/sdcc-builder/build/sdcc-build/orig/sdcc/src/pic14/gen.c:5503:genGenericShift
                      01540 ;; ***  popGetLabel  key=19, label offset 168
017F   2???           01541         GOTO    _00287_DS_
                      01542 ;;; /home/sdcc-builder/build/sdcc-build/orig/sdcc/src/pic14/gen.c:2316:resultRemat *{*
                      01543 ;;; /home/sdcc-builder/build/sdcc-build/orig/sdcc/src/pic14/gen.c:7120:genCast *{*
                      01544 ;; ***  genCast  7121
                      01545 ;; ***  aopForSym 315
                      01546 ;;      327 sym->rname = _PORTB, size = 1
                      01547 ;;      694 register type nRegs=2
                      01548 ;;      line = 7129 result AOP_REG=r0x1064, size=2, left -=-, size=0, right AOP_DIR=_PORTB, size=1
                      01549 ;; >>> /home/sdcc-builder/build/sdcc-build/orig/sdcc/src/pic14/gen.c:7298:genCast
                      01550 ;;      1009
                      01551 ;;      1028  _PORTB   offset=0
0180                  01552 _00288_DS_
0180   ???? ????      01553         BANKSEL _PORTB
0182   08??           01554         MOVF    _PORTB,W
                      01555 ;; >>> /home/sdcc-builder/build/sdcc-build/orig/sdcc/src/pic14/gen.c:7299:genCast
                      01556 ;;      1109 rIdx = r0x1064 
0183   ???? ????      01557         BANKSEL r0x100A
0185   00??           01558         MOVWF   r0x100A
                      01559 ;; ***  addSign  861
                      01560 ;;; /home/sdcc-builder/build/sdcc-build/orig/sdcc/src/pic14/genarith.c:862:addSign *{*
                      01561 ;; >>> /home/sdcc-builder/build/sdcc-build/orig/sdcc/src/pic14/genarith.c:881:addSign
                      01562 ;;      1109 rIdx = r0x1065 
0186   01??           01563         CLRF    r0x100B
                      01564 ;;; /home/sdcc-builder/build/sdcc-build/orig/sdcc/src/pic14/gen.c:2316:resultRemat *{*
                      01565 ;;; /home/sdcc-builder/build/sdcc-build/orig/sdcc/src/pic14/gen.c:3919:genAnd *{*
                      01566 ;; ***  genAnd  3920
                      01567 ;;      694 register type nRegs=2
                      01568 ;;      694 register type nRegs=2
                      01569 ;;      694 register type nRegs=2
                      01570 ;;      line = 3955 result AOP_REG=r0x1060, size=2, left AOP_REG=r0x1060, size=2, right AOP_REG=r0x1064,
                             size=2
                      01571 ;; >>> /home/sdcc-builder/build/sdcc-build/orig/sdcc/src/pic14/gen.c:4137:genAnd
                      01572 ;;      1109 rIdx = r0x1064 
0187   08??           01573         MOVF    r0x100A,W
gpasm-1.4.0 #1106 (Oct  6 2014) obj\Debug\gpi   8-17-2021  02:09:23         PAGE 31


LOC    OBJECT CODE    LINE  SOURCE TEXT
  VALUE

                      01574 ;; >>> /home/sdcc-builder/build/sdcc-build/orig/sdcc/src/pic14/gen.c:4138:genAnd
                      01575 ;;      1109 rIdx = r0x1060 
0188   05??           01576         ANDWF   r0x1006,F
                      01577 ;; >>> /home/sdcc-builder/build/sdcc-build/orig/sdcc/src/pic14/gen.c:4137:genAnd
                      01578 ;;      1109 rIdx = r0x1065 
0189   3000           01579         MOVLW   0x00
                      01580 ;; >>> /home/sdcc-builder/build/sdcc-build/orig/sdcc/src/pic14/gen.c:4138:genAnd
                      01581 ;;      1109 rIdx = r0x1063 
018A   05??           01582         ANDWF   r0x1009,F
                      01583 ;;; /home/sdcc-builder/build/sdcc-build/orig/sdcc/src/pic14/gen.c:2316:resultRemat *{*
                      01584 ;;; /home/sdcc-builder/build/sdcc-build/orig/sdcc/src/pic14/gen.c:5418:genGenericShift *{*
                      01585 ;; ***  genGenericShift  5421
                      01586 ;;      694 register type nRegs=1
                      01587 ;;      694 register type nRegs=2
                      01588 ;;      694 register type nRegs=2
                      01589 ;; ***  mov2w  1381  offset=1
                      01590 ;; >>> /home/sdcc-builder/build/sdcc-build/orig/sdcc/src/pic14/gen.c:1386:mov2w
                      01591 ;;      1109 rIdx = r0x1063 
018B   08??           01592         MOVF    r0x1009,W
                      01593 ;; >>> /home/sdcc-builder/build/sdcc-build/orig/sdcc/src/pic14/gen.c:1393:movwf
                      01594 ;;      1109 rIdx = r0x1065 
018C   00??           01595         MOVWF   r0x100B
                      01596 ;; ***  mov2w  1381  offset=0
                      01597 ;; >>> /home/sdcc-builder/build/sdcc-build/orig/sdcc/src/pic14/gen.c:1386:mov2w
                      01598 ;;      1109 rIdx = r0x1060 
018D   08??           01599         MOVF    r0x1006,W
                      01600 ;; >>> /home/sdcc-builder/build/sdcc-build/orig/sdcc/src/pic14/gen.c:1393:movwf
                      01601 ;;      1109 rIdx = r0x1064 
018E   00??           01602         MOVWF   r0x100A
                      01603 ;; ***  addSign  861
                      01604 ;;; /home/sdcc-builder/build/sdcc-build/orig/sdcc/src/pic14/genarith.c:862:addSign *{*
                      01605 ;; ***  mov2w  1381  offset=0
                      01606 ;; >>> /home/sdcc-builder/build/sdcc-build/orig/sdcc/src/pic14/gen.c:1386:mov2w
                      01607 ;;      1109 rIdx = r0x1061 
018F   08??           01608         MOVF    r0x1007,W
                      01609 ;; >>> /home/sdcc-builder/build/sdcc-build/orig/sdcc/src/pic14/gen.c:5492:genGenericShift
0190   3C00           01610         SUBLW   0x00
                      01611 ;; >>> /home/sdcc-builder/build/sdcc-build/orig/sdcc/src/pic14/gen.c:5494:genGenericShift
0191   1903           01612         BTFSC   STATUS,2
                      01613 ;; >>> /home/sdcc-builder/build/sdcc-build/orig/sdcc/src/pic14/gen.c:5495:genGenericShift
                      01614 ;; ***  popGetLabel  key=22, label offset 168
0192   2???           01615         GOTO    _00290_DS_
                      01616 ;;; /home/sdcc-builder/build/sdcc-build/orig/sdcc/src/pic14/gen.c:5400:loadSignToC *{*
                      01617 ;; >>> /home/sdcc-builder/build/sdcc-build/orig/sdcc/src/pic14/gen.c:5403:loadSignToC
0193                  01618 _00289_DS_
0193   1003           01619         BCF     STATUS,0
                      01620 ;; >>> /home/sdcc-builder/build/sdcc-build/orig/sdcc/src/pic14/gen.c:5404:loadSignToC
0194   ???? ????      01621         BANKSEL r0x100B
0196   1B??           01622         BTFSC   r0x100B,7
                      01623 ;; >>> /home/sdcc-builder/build/sdcc-build/orig/sdcc/src/pic14/gen.c:5405:loadSignToC
0197   1403           01624         BSF     STATUS,0
                      01625 ;;; /home/sdcc-builder/build/sdcc-build/orig/sdcc/src/pic14/gen.c:5369:genMultiAsm *{*
                      01626 ;; ***  genMultiAsm  5370
gpasm-1.4.0 #1106 (Oct  6 2014) obj\Debug\gpi   8-17-2021  02:09:23         PAGE 32


LOC    OBJECT CODE    LINE  SOURCE TEXT
  VALUE

                      01627 ;; >>> /home/sdcc-builder/build/sdcc-build/orig/sdcc/src/pic14/gen.c:5387:genMultiAsm
                      01628 ;;      1109 rIdx = r0x1065 
0198   0C??           01629         RRF     r0x100B,F
                      01630 ;; >>> /home/sdcc-builder/build/sdcc-build/orig/sdcc/src/pic14/gen.c:5387:genMultiAsm
                      01631 ;;      1109 rIdx = r0x1064 
0199   0C??           01632         RRF     r0x100A,F
                      01633 ;; >>> /home/sdcc-builder/build/sdcc-build/orig/sdcc/src/pic14/gen.c:5501:genGenericShift
019A   3E01           01634         ADDLW   0x01
                      01635 ;; >>> /home/sdcc-builder/build/sdcc-build/orig/sdcc/src/pic14/gen.c:5502:genGenericShift
019B   1C03           01636         BTFSS   STATUS,0
                      01637 ;; >>> /home/sdcc-builder/build/sdcc-build/orig/sdcc/src/pic14/gen.c:5503:genGenericShift
                      01638 ;; ***  popGetLabel  key=21, label offset 168
019C   2???           01639         GOTO    _00289_DS_
                      01640 ;;; /home/sdcc-builder/build/sdcc-build/orig/sdcc/src/pic14/gen.c:2316:resultRemat *{*
                      01641 ;;; /home/sdcc-builder/build/sdcc-build/orig/sdcc/src/pic14/gen.c:7120:genCast *{*
                      01642 ;; ***  genCast  7121
                      01643 ;;      694 register type nRegs=2
                      01644 ;;      694 register type nRegs=1
                      01645 ;;      line = 7129 result AOP_REG=r0x1062, size=1, left -=-, size=0, right AOP_REG=r0x1064, size=2
                      01646 ;; ***  genCast  7253
                      01647 ;; >>> /home/sdcc-builder/build/sdcc-build/orig/sdcc/src/pic14/gen.c:7277:genCast
                      01648 ;;      1109 rIdx = r0x1064 
019D                  01649 _00290_DS_
019D   ???? ????      01650         BANKSEL r0x100A
019F   08??           01651         MOVF    r0x100A,W
                      01652 ;; >>> /home/sdcc-builder/build/sdcc-build/orig/sdcc/src/pic14/gen.c:7278:genCast
                      01653 ;;      1109 rIdx = r0x1062 
01A0   00??           01654         MOVWF   r0x1008
                      01655 ;;; /home/sdcc-builder/build/sdcc-build/orig/sdcc/src/pic14/gen.c:2316:resultRemat *{*
                      01656 ;;; /home/sdcc-builder/build/sdcc-build/orig/sdcc/src/pic14/gen.c:2778:genGoto *{*
                      01657 ;; >>> /home/sdcc-builder/build/sdcc-build/orig/sdcc/src/pic14/gen.c:2780:genGoto
                      01658 ;; ***  popGetLabel  key=7, label offset 168
                      01659         .line   191; "gpio.c"   break;
01A1   2???           01660         GOTO    _00275_DS_
                      01661 ;;; /home/sdcc-builder/build/sdcc-build/orig/sdcc/src/pic14/gen.c:2316:resultRemat *{*
                      01662 ;;; /home/sdcc-builder/build/sdcc-build/orig/sdcc/src/pic14/gen.c:2760:genLabel *{*
                      01663 ;; ***  genLabel  2763
                      01664 ;;; /home/sdcc-builder/build/sdcc-build/orig/sdcc/src/pic14/gen.c:2316:resultRemat *{*
                      01665 ;;; /home/sdcc-builder/build/sdcc-build/orig/sdcc/src/pic14/gen.c:5418:genGenericShift *{*
                      01666 ;; ***  genGenericShift  5421
                      01667 ;;      694 register type nRegs=1
                      01668 ;;      694 register type nRegs=2
                      01669 ;; ***  mov2w  1381  offset=1
                      01670 ;; >>> /home/sdcc-builder/build/sdcc-build/orig/sdcc/src/pic14/gen.c:1384:mov2w
01A2                  01671 _00271_DS_
                      01672         .line   193; "gpio.c"   ret=  ReadRegisterPinValue(DATA_REGISTER_READ_PORTC,pin) ;
01A2   3000           01673         MOVLW   0x00
                      01674 ;; >>> /home/sdcc-builder/build/sdcc-build/orig/sdcc/src/pic14/gen.c:1393:movwf
                      01675 ;;      1109 rIdx = r0x1063 
01A3   ???? ????      01676         BANKSEL r0x1009
01A5   00??           01677         MOVWF   r0x1009
                      01678 ;; ***  mov2w  1381  offset=0
                      01679 ;; >>> /home/sdcc-builder/build/sdcc-build/orig/sdcc/src/pic14/gen.c:1384:mov2w
gpasm-1.4.0 #1106 (Oct  6 2014) obj\Debug\gpi   8-17-2021  02:09:23         PAGE 33


LOC    OBJECT CODE    LINE  SOURCE TEXT
  VALUE

01A6   3001           01680         MOVLW   0x01
                      01681 ;; >>> /home/sdcc-builder/build/sdcc-build/orig/sdcc/src/pic14/gen.c:1393:movwf
                      01682 ;;      1109 rIdx = r0x1060 
01A7   00??           01683         MOVWF   r0x1006
                      01684 ;; ***  addSign  861
                      01685 ;;; /home/sdcc-builder/build/sdcc-build/orig/sdcc/src/pic14/genarith.c:862:addSign *{*
                      01686 ;; ***  mov2w  1381  offset=0
                      01687 ;; >>> /home/sdcc-builder/build/sdcc-build/orig/sdcc/src/pic14/gen.c:1386:mov2w
                      01688 ;;      1109 rIdx = r0x1061 
01A8   08??           01689         MOVF    r0x1007,W
                      01690 ;; >>> /home/sdcc-builder/build/sdcc-build/orig/sdcc/src/pic14/gen.c:5492:genGenericShift
01A9   3C00           01691         SUBLW   0x00
                      01692 ;; >>> /home/sdcc-builder/build/sdcc-build/orig/sdcc/src/pic14/gen.c:5494:genGenericShift
01AA   1903           01693         BTFSC   STATUS,2
                      01694 ;; >>> /home/sdcc-builder/build/sdcc-build/orig/sdcc/src/pic14/gen.c:5495:genGenericShift
                      01695 ;; ***  popGetLabel  key=24, label offset 168
01AB   2???           01696         GOTO    _00292_DS_
                      01697 ;;; /home/sdcc-builder/build/sdcc-build/orig/sdcc/src/pic14/gen.c:5369:genMultiAsm *{*
                      01698 ;; ***  genMultiAsm  5370
                      01699 ;; >>> /home/sdcc-builder/build/sdcc-build/orig/sdcc/src/pic14/gen.c:5387:genMultiAsm
                      01700 ;;      1109 rIdx = r0x1060 
01AC                  01701 _00291_DS_
01AC   ???? ????      01702         BANKSEL r0x1006
01AE   0D??           01703         RLF     r0x1006,F
                      01704 ;; >>> /home/sdcc-builder/build/sdcc-build/orig/sdcc/src/pic14/gen.c:5387:genMultiAsm
                      01705 ;;      1109 rIdx = r0x1063 
01AF   0D??           01706         RLF     r0x1009,F
                      01707 ;; >>> /home/sdcc-builder/build/sdcc-build/orig/sdcc/src/pic14/gen.c:5501:genGenericShift
01B0   3E01           01708         ADDLW   0x01
                      01709 ;; >>> /home/sdcc-builder/build/sdcc-build/orig/sdcc/src/pic14/gen.c:5502:genGenericShift
01B1   1C03           01710         BTFSS   STATUS,0
                      01711 ;; >>> /home/sdcc-builder/build/sdcc-build/orig/sdcc/src/pic14/gen.c:5503:genGenericShift
                      01712 ;; ***  popGetLabel  key=23, label offset 168
01B2   2???           01713         GOTO    _00291_DS_
                      01714 ;;; /home/sdcc-builder/build/sdcc-build/orig/sdcc/src/pic14/gen.c:2316:resultRemat *{*
                      01715 ;;; /home/sdcc-builder/build/sdcc-build/orig/sdcc/src/pic14/gen.c:7120:genCast *{*
                      01716 ;; ***  genCast  7121
                      01717 ;; ***  aopForSym 315
                      01718 ;;      327 sym->rname = _PORTC, size = 1
                      01719 ;;      694 register type nRegs=2
                      01720 ;;      line = 7129 result AOP_REG=r0x1064, size=2, left -=-, size=0, right AOP_DIR=_PORTC, size=1
                      01721 ;; >>> /home/sdcc-builder/build/sdcc-build/orig/sdcc/src/pic14/gen.c:7298:genCast
                      01722 ;;      1009
                      01723 ;;      1028  _PORTC   offset=0
01B3                  01724 _00292_DS_
01B3   ???? ????      01725         BANKSEL _PORTC
01B5   08??           01726         MOVF    _PORTC,W
                      01727 ;; >>> /home/sdcc-builder/build/sdcc-build/orig/sdcc/src/pic14/gen.c:7299:genCast
                      01728 ;;      1109 rIdx = r0x1064 
01B6   ???? ????      01729         BANKSEL r0x100A
01B8   00??           01730         MOVWF   r0x100A
                      01731 ;; ***  addSign  861
                      01732 ;;; /home/sdcc-builder/build/sdcc-build/orig/sdcc/src/pic14/genarith.c:862:addSign *{*
gpasm-1.4.0 #1106 (Oct  6 2014) obj\Debug\gpi   8-17-2021  02:09:23         PAGE 34


LOC    OBJECT CODE    LINE  SOURCE TEXT
  VALUE

                      01733 ;; >>> /home/sdcc-builder/build/sdcc-build/orig/sdcc/src/pic14/genarith.c:881:addSign
                      01734 ;;      1109 rIdx = r0x1065 
01B9   01??           01735         CLRF    r0x100B
                      01736 ;;; /home/sdcc-builder/build/sdcc-build/orig/sdcc/src/pic14/gen.c:2316:resultRemat *{*
                      01737 ;;; /home/sdcc-builder/build/sdcc-build/orig/sdcc/src/pic14/gen.c:3919:genAnd *{*
                      01738 ;; ***  genAnd  3920
                      01739 ;;      694 register type nRegs=2
                      01740 ;;      694 register type nRegs=2
                      01741 ;;      694 register type nRegs=2
                      01742 ;;      line = 3955 result AOP_REG=r0x1060, size=2, left AOP_REG=r0x1060, size=2, right AOP_REG=r0x1064,
                             size=2
                      01743 ;; >>> /home/sdcc-builder/build/sdcc-build/orig/sdcc/src/pic14/gen.c:4137:genAnd
                      01744 ;;      1109 rIdx = r0x1064 
01BA   08??           01745         MOVF    r0x100A,W
                      01746 ;; >>> /home/sdcc-builder/build/sdcc-build/orig/sdcc/src/pic14/gen.c:4138:genAnd
                      01747 ;;      1109 rIdx = r0x1060 
01BB   05??           01748         ANDWF   r0x1006,F
                      01749 ;; >>> /home/sdcc-builder/build/sdcc-build/orig/sdcc/src/pic14/gen.c:4137:genAnd
                      01750 ;;      1109 rIdx = r0x1065 
01BC   3000           01751         MOVLW   0x00
                      01752 ;; >>> /home/sdcc-builder/build/sdcc-build/orig/sdcc/src/pic14/gen.c:4138:genAnd
                      01753 ;;      1109 rIdx = r0x1063 
01BD   05??           01754         ANDWF   r0x1009,F
                      01755 ;;; /home/sdcc-builder/build/sdcc-build/orig/sdcc/src/pic14/gen.c:2316:resultRemat *{*
                      01756 ;;; /home/sdcc-builder/build/sdcc-build/orig/sdcc/src/pic14/gen.c:5418:genGenericShift *{*
                      01757 ;; ***  genGenericShift  5421
                      01758 ;;      694 register type nRegs=1
                      01759 ;;      694 register type nRegs=2
                      01760 ;;      694 register type nRegs=2
                      01761 ;; ***  mov2w  1381  offset=1
                      01762 ;; >>> /home/sdcc-builder/build/sdcc-build/orig/sdcc/src/pic14/gen.c:1386:mov2w
                      01763 ;;      1109 rIdx = r0x1063 
01BE   08??           01764         MOVF    r0x1009,W
                      01765 ;; >>> /home/sdcc-builder/build/sdcc-build/orig/sdcc/src/pic14/gen.c:1393:movwf
                      01766 ;;      1109 rIdx = r0x1065 
01BF   00??           01767         MOVWF   r0x100B
                      01768 ;; ***  mov2w  1381  offset=0
                      01769 ;; >>> /home/sdcc-builder/build/sdcc-build/orig/sdcc/src/pic14/gen.c:1386:mov2w
                      01770 ;;      1109 rIdx = r0x1060 
01C0   08??           01771         MOVF    r0x1006,W
                      01772 ;; >>> /home/sdcc-builder/build/sdcc-build/orig/sdcc/src/pic14/gen.c:1393:movwf
                      01773 ;;      1109 rIdx = r0x1064 
01C1   00??           01774         MOVWF   r0x100A
                      01775 ;; ***  addSign  861
                      01776 ;;; /home/sdcc-builder/build/sdcc-build/orig/sdcc/src/pic14/genarith.c:862:addSign *{*
                      01777 ;; ***  mov2w  1381  offset=0
                      01778 ;; >>> /home/sdcc-builder/build/sdcc-build/orig/sdcc/src/pic14/gen.c:1386:mov2w
                      01779 ;;      1109 rIdx = r0x1061 
01C2   08??           01780         MOVF    r0x1007,W
                      01781 ;; >>> /home/sdcc-builder/build/sdcc-build/orig/sdcc/src/pic14/gen.c:5492:genGenericShift
01C3   3C00           01782         SUBLW   0x00
                      01783 ;; >>> /home/sdcc-builder/build/sdcc-build/orig/sdcc/src/pic14/gen.c:5494:genGenericShift
01C4   1903           01784         BTFSC   STATUS,2
gpasm-1.4.0 #1106 (Oct  6 2014) obj\Debug\gpi   8-17-2021  02:09:23         PAGE 35


LOC    OBJECT CODE    LINE  SOURCE TEXT
  VALUE

                      01785 ;; >>> /home/sdcc-builder/build/sdcc-build/orig/sdcc/src/pic14/gen.c:5495:genGenericShift
                      01786 ;; ***  popGetLabel  key=26, label offset 168
01C5   2???           01787         GOTO    _00294_DS_
                      01788 ;;; /home/sdcc-builder/build/sdcc-build/orig/sdcc/src/pic14/gen.c:5400:loadSignToC *{*
                      01789 ;; >>> /home/sdcc-builder/build/sdcc-build/orig/sdcc/src/pic14/gen.c:5403:loadSignToC
01C6                  01790 _00293_DS_
01C6   1003           01791         BCF     STATUS,0
                      01792 ;; >>> /home/sdcc-builder/build/sdcc-build/orig/sdcc/src/pic14/gen.c:5404:loadSignToC
01C7   ???? ????      01793         BANKSEL r0x100B
01C9   1B??           01794         BTFSC   r0x100B,7
                      01795 ;; >>> /home/sdcc-builder/build/sdcc-build/orig/sdcc/src/pic14/gen.c:5405:loadSignToC
01CA   1403           01796         BSF     STATUS,0
                      01797 ;;; /home/sdcc-builder/build/sdcc-build/orig/sdcc/src/pic14/gen.c:5369:genMultiAsm *{*
                      01798 ;; ***  genMultiAsm  5370
                      01799 ;; >>> /home/sdcc-builder/build/sdcc-build/orig/sdcc/src/pic14/gen.c:5387:genMultiAsm
                      01800 ;;      1109 rIdx = r0x1065 
01CB   0C??           01801         RRF     r0x100B,F
                      01802 ;; >>> /home/sdcc-builder/build/sdcc-build/orig/sdcc/src/pic14/gen.c:5387:genMultiAsm
                      01803 ;;      1109 rIdx = r0x1064 
01CC   0C??           01804         RRF     r0x100A,F
                      01805 ;; >>> /home/sdcc-builder/build/sdcc-build/orig/sdcc/src/pic14/gen.c:5501:genGenericShift
01CD   3E01           01806         ADDLW   0x01
                      01807 ;; >>> /home/sdcc-builder/build/sdcc-build/orig/sdcc/src/pic14/gen.c:5502:genGenericShift
01CE   1C03           01808         BTFSS   STATUS,0
                      01809 ;; >>> /home/sdcc-builder/build/sdcc-build/orig/sdcc/src/pic14/gen.c:5503:genGenericShift
                      01810 ;; ***  popGetLabel  key=25, label offset 168
01CF   2???           01811         GOTO    _00293_DS_
                      01812 ;;; /home/sdcc-builder/build/sdcc-build/orig/sdcc/src/pic14/gen.c:2316:resultRemat *{*
                      01813 ;;; /home/sdcc-builder/build/sdcc-build/orig/sdcc/src/pic14/gen.c:7120:genCast *{*
                      01814 ;; ***  genCast  7121
                      01815 ;;      694 register type nRegs=2
                      01816 ;;      694 register type nRegs=1
                      01817 ;;      line = 7129 result AOP_REG=r0x1062, size=1, left -=-, size=0, right AOP_REG=r0x1064, size=2
                      01818 ;; ***  genCast  7253
                      01819 ;; >>> /home/sdcc-builder/build/sdcc-build/orig/sdcc/src/pic14/gen.c:7277:genCast
                      01820 ;;      1109 rIdx = r0x1064 
01D0                  01821 _00294_DS_
01D0   ???? ????      01822         BANKSEL r0x100A
01D2   08??           01823         MOVF    r0x100A,W
                      01824 ;; >>> /home/sdcc-builder/build/sdcc-build/orig/sdcc/src/pic14/gen.c:7278:genCast
                      01825 ;;      1109 rIdx = r0x1062 
01D3   00??           01826         MOVWF   r0x1008
                      01827 ;;; /home/sdcc-builder/build/sdcc-build/orig/sdcc/src/pic14/gen.c:2316:resultRemat *{*
                      01828 ;;; /home/sdcc-builder/build/sdcc-build/orig/sdcc/src/pic14/gen.c:2778:genGoto *{*
                      01829 ;; >>> /home/sdcc-builder/build/sdcc-build/orig/sdcc/src/pic14/gen.c:2780:genGoto
                      01830 ;; ***  popGetLabel  key=7, label offset 168
                      01831         .line   194; "gpio.c"   break;
01D4   2???           01832         GOTO    _00275_DS_
                      01833 ;;; /home/sdcc-builder/build/sdcc-build/orig/sdcc/src/pic14/gen.c:2316:resultRemat *{*
                      01834 ;;; /home/sdcc-builder/build/sdcc-build/orig/sdcc/src/pic14/gen.c:2760:genLabel *{*
                      01835 ;; ***  genLabel  2763
                      01836 ;;; /home/sdcc-builder/build/sdcc-build/orig/sdcc/src/pic14/gen.c:2316:resultRemat *{*
                      01837 ;;; /home/sdcc-builder/build/sdcc-build/orig/sdcc/src/pic14/gen.c:5418:genGenericShift *{*
gpasm-1.4.0 #1106 (Oct  6 2014) obj\Debug\gpi   8-17-2021  02:09:23         PAGE 36


LOC    OBJECT CODE    LINE  SOURCE TEXT
  VALUE

                      01838 ;; ***  genGenericShift  5421
                      01839 ;;      694 register type nRegs=1
                      01840 ;;      694 register type nRegs=2
                      01841 ;; ***  mov2w  1381  offset=1
                      01842 ;; >>> /home/sdcc-builder/build/sdcc-build/orig/sdcc/src/pic14/gen.c:1384:mov2w
01D5                  01843 _00272_DS_
                      01844         .line   196; "gpio.c"   ret=  ReadRegisterPinValue(DATA_REGISTER_READ_PORTD,pin) ;
01D5   3000           01845         MOVLW   0x00
                      01846 ;; >>> /home/sdcc-builder/build/sdcc-build/orig/sdcc/src/pic14/gen.c:1393:movwf
                      01847 ;;      1109 rIdx = r0x1063 
01D6   ???? ????      01848         BANKSEL r0x1009
01D8   00??           01849         MOVWF   r0x1009
                      01850 ;; ***  mov2w  1381  offset=0
                      01851 ;; >>> /home/sdcc-builder/build/sdcc-build/orig/sdcc/src/pic14/gen.c:1384:mov2w
01D9   3001           01852         MOVLW   0x01
                      01853 ;; >>> /home/sdcc-builder/build/sdcc-build/orig/sdcc/src/pic14/gen.c:1393:movwf
                      01854 ;;      1109 rIdx = r0x1060 
01DA   00??           01855         MOVWF   r0x1006
                      01856 ;; ***  addSign  861
                      01857 ;;; /home/sdcc-builder/build/sdcc-build/orig/sdcc/src/pic14/genarith.c:862:addSign *{*
                      01858 ;; ***  mov2w  1381  offset=0
                      01859 ;; >>> /home/sdcc-builder/build/sdcc-build/orig/sdcc/src/pic14/gen.c:1386:mov2w
                      01860 ;;      1109 rIdx = r0x1061 
01DB   08??           01861         MOVF    r0x1007,W
                      01862 ;; >>> /home/sdcc-builder/build/sdcc-build/orig/sdcc/src/pic14/gen.c:5492:genGenericShift
01DC   3C00           01863         SUBLW   0x00
                      01864 ;; >>> /home/sdcc-builder/build/sdcc-build/orig/sdcc/src/pic14/gen.c:5494:genGenericShift
01DD   1903           01865         BTFSC   STATUS,2
                      01866 ;; >>> /home/sdcc-builder/build/sdcc-build/orig/sdcc/src/pic14/gen.c:5495:genGenericShift
                      01867 ;; ***  popGetLabel  key=28, label offset 168
01DE   2???           01868         GOTO    _00296_DS_
                      01869 ;;; /home/sdcc-builder/build/sdcc-build/orig/sdcc/src/pic14/gen.c:5369:genMultiAsm *{*
                      01870 ;; ***  genMultiAsm  5370
                      01871 ;; >>> /home/sdcc-builder/build/sdcc-build/orig/sdcc/src/pic14/gen.c:5387:genMultiAsm
                      01872 ;;      1109 rIdx = r0x1060 
01DF                  01873 _00295_DS_
01DF   ???? ????      01874         BANKSEL r0x1006
01E1   0D??           01875         RLF     r0x1006,F
                      01876 ;; >>> /home/sdcc-builder/build/sdcc-build/orig/sdcc/src/pic14/gen.c:5387:genMultiAsm
                      01877 ;;      1109 rIdx = r0x1063 
01E2   0D??           01878         RLF     r0x1009,F
                      01879 ;; >>> /home/sdcc-builder/build/sdcc-build/orig/sdcc/src/pic14/gen.c:5501:genGenericShift
01E3   3E01           01880         ADDLW   0x01
                      01881 ;; >>> /home/sdcc-builder/build/sdcc-build/orig/sdcc/src/pic14/gen.c:5502:genGenericShift
01E4   1C03           01882         BTFSS   STATUS,0
                      01883 ;; >>> /home/sdcc-builder/build/sdcc-build/orig/sdcc/src/pic14/gen.c:5503:genGenericShift
                      01884 ;; ***  popGetLabel  key=27, label offset 168
01E5   2???           01885         GOTO    _00295_DS_
                      01886 ;;; /home/sdcc-builder/build/sdcc-build/orig/sdcc/src/pic14/gen.c:2316:resultRemat *{*
                      01887 ;;; /home/sdcc-builder/build/sdcc-build/orig/sdcc/src/pic14/gen.c:7120:genCast *{*
                      01888 ;; ***  genCast  7121
                      01889 ;; ***  aopForSym 315
                      01890 ;;      327 sym->rname = _PORTD, size = 1
gpasm-1.4.0 #1106 (Oct  6 2014) obj\Debug\gpi   8-17-2021  02:09:23         PAGE 37


LOC    OBJECT CODE    LINE  SOURCE TEXT
  VALUE

                      01891 ;;      694 register type nRegs=2
                      01892 ;;      line = 7129 result AOP_REG=r0x1064, size=2, left -=-, size=0, right AOP_DIR=_PORTD, size=1
                      01893 ;; >>> /home/sdcc-builder/build/sdcc-build/orig/sdcc/src/pic14/gen.c:7298:genCast
                      01894 ;;      1009
                      01895 ;;      1028  _PORTD   offset=0
01E6                  01896 _00296_DS_
01E6   ???? ????      01897         BANKSEL _PORTD
01E8   08??           01898         MOVF    _PORTD,W
                      01899 ;; >>> /home/sdcc-builder/build/sdcc-build/orig/sdcc/src/pic14/gen.c:7299:genCast
                      01900 ;;      1109 rIdx = r0x1064 
01E9   ???? ????      01901         BANKSEL r0x100A
01EB   00??           01902         MOVWF   r0x100A
                      01903 ;; ***  addSign  861
                      01904 ;;; /home/sdcc-builder/build/sdcc-build/orig/sdcc/src/pic14/genarith.c:862:addSign *{*
                      01905 ;; >>> /home/sdcc-builder/build/sdcc-build/orig/sdcc/src/pic14/genarith.c:881:addSign
                      01906 ;;      1109 rIdx = r0x1065 
01EC   01??           01907         CLRF    r0x100B
                      01908 ;;; /home/sdcc-builder/build/sdcc-build/orig/sdcc/src/pic14/gen.c:2316:resultRemat *{*
                      01909 ;;; /home/sdcc-builder/build/sdcc-build/orig/sdcc/src/pic14/gen.c:3919:genAnd *{*
                      01910 ;; ***  genAnd  3920
                      01911 ;;      694 register type nRegs=2
                      01912 ;;      694 register type nRegs=2
                      01913 ;;      694 register type nRegs=2
                      01914 ;;      line = 3955 result AOP_REG=r0x1060, size=2, left AOP_REG=r0x1060, size=2, right AOP_REG=r0x1064,
                             size=2
                      01915 ;; >>> /home/sdcc-builder/build/sdcc-build/orig/sdcc/src/pic14/gen.c:4137:genAnd
                      01916 ;;      1109 rIdx = r0x1064 
01ED   08??           01917         MOVF    r0x100A,W
                      01918 ;; >>> /home/sdcc-builder/build/sdcc-build/orig/sdcc/src/pic14/gen.c:4138:genAnd
                      01919 ;;      1109 rIdx = r0x1060 
01EE   05??           01920         ANDWF   r0x1006,F
                      01921 ;; >>> /home/sdcc-builder/build/sdcc-build/orig/sdcc/src/pic14/gen.c:4137:genAnd
                      01922 ;;      1109 rIdx = r0x1065 
01EF   3000           01923         MOVLW   0x00
                      01924 ;; >>> /home/sdcc-builder/build/sdcc-build/orig/sdcc/src/pic14/gen.c:4138:genAnd
                      01925 ;;      1109 rIdx = r0x1063 
01F0   05??           01926         ANDWF   r0x1009,F
                      01927 ;;; /home/sdcc-builder/build/sdcc-build/orig/sdcc/src/pic14/gen.c:2316:resultRemat *{*
                      01928 ;;; /home/sdcc-builder/build/sdcc-build/orig/sdcc/src/pic14/gen.c:5418:genGenericShift *{*
                      01929 ;; ***  genGenericShift  5421
                      01930 ;;      694 register type nRegs=1
                      01931 ;;      694 register type nRegs=2
                      01932 ;;      694 register type nRegs=2
                      01933 ;; ***  mov2w  1381  offset=1
                      01934 ;; >>> /home/sdcc-builder/build/sdcc-build/orig/sdcc/src/pic14/gen.c:1386:mov2w
                      01935 ;;      1109 rIdx = r0x1063 
01F1   08??           01936         MOVF    r0x1009,W
                      01937 ;; >>> /home/sdcc-builder/build/sdcc-build/orig/sdcc/src/pic14/gen.c:1393:movwf
                      01938 ;;      1109 rIdx = r0x1065 
01F2   00??           01939         MOVWF   r0x100B
                      01940 ;; ***  mov2w  1381  offset=0
                      01941 ;; >>> /home/sdcc-builder/build/sdcc-build/orig/sdcc/src/pic14/gen.c:1386:mov2w
                      01942 ;;      1109 rIdx = r0x1060 
gpasm-1.4.0 #1106 (Oct  6 2014) obj\Debug\gpi   8-17-2021  02:09:23         PAGE 38


LOC    OBJECT CODE    LINE  SOURCE TEXT
  VALUE

01F3   08??           01943         MOVF    r0x1006,W
                      01944 ;; >>> /home/sdcc-builder/build/sdcc-build/orig/sdcc/src/pic14/gen.c:1393:movwf
                      01945 ;;      1109 rIdx = r0x1064 
01F4   00??           01946         MOVWF   r0x100A
                      01947 ;; ***  addSign  861
                      01948 ;;; /home/sdcc-builder/build/sdcc-build/orig/sdcc/src/pic14/genarith.c:862:addSign *{*
                      01949 ;; ***  mov2w  1381  offset=0
                      01950 ;; >>> /home/sdcc-builder/build/sdcc-build/orig/sdcc/src/pic14/gen.c:1386:mov2w
                      01951 ;;      1109 rIdx = r0x1061 
01F5   08??           01952         MOVF    r0x1007,W
                      01953 ;; >>> /home/sdcc-builder/build/sdcc-build/orig/sdcc/src/pic14/gen.c:5492:genGenericShift
01F6   3C00           01954         SUBLW   0x00
                      01955 ;; >>> /home/sdcc-builder/build/sdcc-build/orig/sdcc/src/pic14/gen.c:5494:genGenericShift
01F7   1903           01956         BTFSC   STATUS,2
                      01957 ;; >>> /home/sdcc-builder/build/sdcc-build/orig/sdcc/src/pic14/gen.c:5495:genGenericShift
                      01958 ;; ***  popGetLabel  key=30, label offset 168
01F8   2???           01959         GOTO    _00298_DS_
                      01960 ;;; /home/sdcc-builder/build/sdcc-build/orig/sdcc/src/pic14/gen.c:5400:loadSignToC *{*
                      01961 ;; >>> /home/sdcc-builder/build/sdcc-build/orig/sdcc/src/pic14/gen.c:5403:loadSignToC
01F9                  01962 _00297_DS_
01F9   1003           01963         BCF     STATUS,0
                      01964 ;; >>> /home/sdcc-builder/build/sdcc-build/orig/sdcc/src/pic14/gen.c:5404:loadSignToC
01FA   ???? ????      01965         BANKSEL r0x100B
01FC   1B??           01966         BTFSC   r0x100B,7
                      01967 ;; >>> /home/sdcc-builder/build/sdcc-build/orig/sdcc/src/pic14/gen.c:5405:loadSignToC
01FD   1403           01968         BSF     STATUS,0
                      01969 ;;; /home/sdcc-builder/build/sdcc-build/orig/sdcc/src/pic14/gen.c:5369:genMultiAsm *{*
                      01970 ;; ***  genMultiAsm  5370
                      01971 ;; >>> /home/sdcc-builder/build/sdcc-build/orig/sdcc/src/pic14/gen.c:5387:genMultiAsm
                      01972 ;;      1109 rIdx = r0x1065 
01FE   0C??           01973         RRF     r0x100B,F
                      01974 ;; >>> /home/sdcc-builder/build/sdcc-build/orig/sdcc/src/pic14/gen.c:5387:genMultiAsm
                      01975 ;;      1109 rIdx = r0x1064 
01FF   0C??           01976         RRF     r0x100A,F
                      01977 ;; >>> /home/sdcc-builder/build/sdcc-build/orig/sdcc/src/pic14/gen.c:5501:genGenericShift
0200   3E01           01978         ADDLW   0x01
                      01979 ;; >>> /home/sdcc-builder/build/sdcc-build/orig/sdcc/src/pic14/gen.c:5502:genGenericShift
0201   1C03           01980         BTFSS   STATUS,0
                      01981 ;; >>> /home/sdcc-builder/build/sdcc-build/orig/sdcc/src/pic14/gen.c:5503:genGenericShift
                      01982 ;; ***  popGetLabel  key=29, label offset 168
0202   2???           01983         GOTO    _00297_DS_
                      01984 ;;; /home/sdcc-builder/build/sdcc-build/orig/sdcc/src/pic14/gen.c:2316:resultRemat *{*
                      01985 ;;; /home/sdcc-builder/build/sdcc-build/orig/sdcc/src/pic14/gen.c:7120:genCast *{*
                      01986 ;; ***  genCast  7121
                      01987 ;;      694 register type nRegs=2
                      01988 ;;      694 register type nRegs=1
                      01989 ;;      line = 7129 result AOP_REG=r0x1062, size=1, left -=-, size=0, right AOP_REG=r0x1064, size=2
                      01990 ;; ***  genCast  7253
                      01991 ;; >>> /home/sdcc-builder/build/sdcc-build/orig/sdcc/src/pic14/gen.c:7277:genCast
                      01992 ;;      1109 rIdx = r0x1064 
0203                  01993 _00298_DS_
0203   ???? ????      01994         BANKSEL r0x100A
0205   08??           01995         MOVF    r0x100A,W
gpasm-1.4.0 #1106 (Oct  6 2014) obj\Debug\gpi   8-17-2021  02:09:23         PAGE 39


LOC    OBJECT CODE    LINE  SOURCE TEXT
  VALUE

                      01996 ;; >>> /home/sdcc-builder/build/sdcc-build/orig/sdcc/src/pic14/gen.c:7278:genCast
                      01997 ;;      1109 rIdx = r0x1062 
0206   00??           01998         MOVWF   r0x1008
                      01999 ;;; /home/sdcc-builder/build/sdcc-build/orig/sdcc/src/pic14/gen.c:2316:resultRemat *{*
                      02000 ;;; /home/sdcc-builder/build/sdcc-build/orig/sdcc/src/pic14/gen.c:2778:genGoto *{*
                      02001 ;; >>> /home/sdcc-builder/build/sdcc-build/orig/sdcc/src/pic14/gen.c:2780:genGoto
                      02002 ;; ***  popGetLabel  key=7, label offset 168
                      02003         .line   197; "gpio.c"   break;
0207   2???           02004         GOTO    _00275_DS_
                      02005 ;;; /home/sdcc-builder/build/sdcc-build/orig/sdcc/src/pic14/gen.c:2316:resultRemat *{*
                      02006 ;;; /home/sdcc-builder/build/sdcc-build/orig/sdcc/src/pic14/gen.c:2760:genLabel *{*
                      02007 ;; ***  genLabel  2763
                      02008 ;;; /home/sdcc-builder/build/sdcc-build/orig/sdcc/src/pic14/gen.c:2316:resultRemat *{*
                      02009 ;;; /home/sdcc-builder/build/sdcc-build/orig/sdcc/src/pic14/gen.c:5418:genGenericShift *{*
                      02010 ;; ***  genGenericShift  5421
                      02011 ;;      694 register type nRegs=1
                      02012 ;;      694 register type nRegs=2
                      02013 ;; ***  mov2w  1381  offset=1
                      02014 ;; >>> /home/sdcc-builder/build/sdcc-build/orig/sdcc/src/pic14/gen.c:1384:mov2w
0208                  02015 _00273_DS_
                      02016         .line   199; "gpio.c"   ret=  ReadRegisterPinValue(DATA_REGISTER_READ_PORTE,pin) ;
0208   3000           02017         MOVLW   0x00
                      02018 ;; >>> /home/sdcc-builder/build/sdcc-build/orig/sdcc/src/pic14/gen.c:1393:movwf
                      02019 ;;      1109 rIdx = r0x1063 
0209   ???? ????      02020         BANKSEL r0x1009
020B   00??           02021         MOVWF   r0x1009
                      02022 ;; ***  mov2w  1381  offset=0
                      02023 ;; >>> /home/sdcc-builder/build/sdcc-build/orig/sdcc/src/pic14/gen.c:1384:mov2w
020C   3001           02024         MOVLW   0x01
                      02025 ;; >>> /home/sdcc-builder/build/sdcc-build/orig/sdcc/src/pic14/gen.c:1393:movwf
                      02026 ;;      1109 rIdx = r0x1060 
020D   00??           02027         MOVWF   r0x1006
                      02028 ;; ***  addSign  861
                      02029 ;;; /home/sdcc-builder/build/sdcc-build/orig/sdcc/src/pic14/genarith.c:862:addSign *{*
                      02030 ;; ***  mov2w  1381  offset=0
                      02031 ;; >>> /home/sdcc-builder/build/sdcc-build/orig/sdcc/src/pic14/gen.c:1386:mov2w
                      02032 ;;      1109 rIdx = r0x1061 
020E   08??           02033         MOVF    r0x1007,W
                      02034 ;; >>> /home/sdcc-builder/build/sdcc-build/orig/sdcc/src/pic14/gen.c:5492:genGenericShift
020F   3C00           02035         SUBLW   0x00
                      02036 ;; >>> /home/sdcc-builder/build/sdcc-build/orig/sdcc/src/pic14/gen.c:5494:genGenericShift
0210   1903           02037         BTFSC   STATUS,2
                      02038 ;; >>> /home/sdcc-builder/build/sdcc-build/orig/sdcc/src/pic14/gen.c:5495:genGenericShift
                      02039 ;; ***  popGetLabel  key=32, label offset 168
0211   2???           02040         GOTO    _00300_DS_
                      02041 ;;; /home/sdcc-builder/build/sdcc-build/orig/sdcc/src/pic14/gen.c:5369:genMultiAsm *{*
                      02042 ;; ***  genMultiAsm  5370
                      02043 ;; >>> /home/sdcc-builder/build/sdcc-build/orig/sdcc/src/pic14/gen.c:5387:genMultiAsm
                      02044 ;;      1109 rIdx = r0x1060 
0212                  02045 _00299_DS_
0212   ???? ????      02046         BANKSEL r0x1006
0214   0D??           02047         RLF     r0x1006,F
                      02048 ;; >>> /home/sdcc-builder/build/sdcc-build/orig/sdcc/src/pic14/gen.c:5387:genMultiAsm
gpasm-1.4.0 #1106 (Oct  6 2014) obj\Debug\gpi   8-17-2021  02:09:23         PAGE 40


LOC    OBJECT CODE    LINE  SOURCE TEXT
  VALUE

                      02049 ;;      1109 rIdx = r0x1063 
0215   0D??           02050         RLF     r0x1009,F
                      02051 ;; >>> /home/sdcc-builder/build/sdcc-build/orig/sdcc/src/pic14/gen.c:5501:genGenericShift
0216   3E01           02052         ADDLW   0x01
                      02053 ;; >>> /home/sdcc-builder/build/sdcc-build/orig/sdcc/src/pic14/gen.c:5502:genGenericShift
0217   1C03           02054         BTFSS   STATUS,0
                      02055 ;; >>> /home/sdcc-builder/build/sdcc-build/orig/sdcc/src/pic14/gen.c:5503:genGenericShift
                      02056 ;; ***  popGetLabel  key=31, label offset 168
0218   2???           02057         GOTO    _00299_DS_
                      02058 ;;; /home/sdcc-builder/build/sdcc-build/orig/sdcc/src/pic14/gen.c:2316:resultRemat *{*
                      02059 ;;; /home/sdcc-builder/build/sdcc-build/orig/sdcc/src/pic14/gen.c:7120:genCast *{*
                      02060 ;; ***  genCast  7121
                      02061 ;; ***  aopForSym 315
                      02062 ;;      327 sym->rname = _PORTE, size = 1
                      02063 ;;      694 register type nRegs=2
                      02064 ;;      line = 7129 result AOP_REG=r0x1064, size=2, left -=-, size=0, right AOP_DIR=_PORTE, size=1
                      02065 ;; >>> /home/sdcc-builder/build/sdcc-build/orig/sdcc/src/pic14/gen.c:7298:genCast
                      02066 ;;      1009
                      02067 ;;      1028  _PORTE   offset=0
0219                  02068 _00300_DS_
0219   ???? ????      02069         BANKSEL _PORTE
021B   08??           02070         MOVF    _PORTE,W
                      02071 ;; >>> /home/sdcc-builder/build/sdcc-build/orig/sdcc/src/pic14/gen.c:7299:genCast
                      02072 ;;      1109 rIdx = r0x1064 
021C   ???? ????      02073         BANKSEL r0x100A
021E   00??           02074         MOVWF   r0x100A
                      02075 ;; ***  addSign  861
                      02076 ;;; /home/sdcc-builder/build/sdcc-build/orig/sdcc/src/pic14/genarith.c:862:addSign *{*
                      02077 ;; >>> /home/sdcc-builder/build/sdcc-build/orig/sdcc/src/pic14/genarith.c:881:addSign
                      02078 ;;      1109 rIdx = r0x1065 
021F   01??           02079         CLRF    r0x100B
                      02080 ;;; /home/sdcc-builder/build/sdcc-build/orig/sdcc/src/pic14/gen.c:2316:resultRemat *{*
                      02081 ;;; /home/sdcc-builder/build/sdcc-build/orig/sdcc/src/pic14/gen.c:3919:genAnd *{*
                      02082 ;; ***  genAnd  3920
                      02083 ;;      694 register type nRegs=2
                      02084 ;;      694 register type nRegs=2
                      02085 ;;      694 register type nRegs=2
                      02086 ;;      line = 3955 result AOP_REG=r0x1060, size=2, left AOP_REG=r0x1060, size=2, right AOP_REG=r0x1064,
                             size=2
                      02087 ;; >>> /home/sdcc-builder/build/sdcc-build/orig/sdcc/src/pic14/gen.c:4137:genAnd
                      02088 ;;      1109 rIdx = r0x1064 
0220   08??           02089         MOVF    r0x100A,W
                      02090 ;; >>> /home/sdcc-builder/build/sdcc-build/orig/sdcc/src/pic14/gen.c:4138:genAnd
                      02091 ;;      1109 rIdx = r0x1060 
0221   05??           02092         ANDWF   r0x1006,F
                      02093 ;; >>> /home/sdcc-builder/build/sdcc-build/orig/sdcc/src/pic14/gen.c:4137:genAnd
                      02094 ;;      1109 rIdx = r0x1065 
0222   3000           02095         MOVLW   0x00
                      02096 ;; >>> /home/sdcc-builder/build/sdcc-build/orig/sdcc/src/pic14/gen.c:4138:genAnd
                      02097 ;;      1109 rIdx = r0x1063 
0223   05??           02098         ANDWF   r0x1009,F
                      02099 ;;; /home/sdcc-builder/build/sdcc-build/orig/sdcc/src/pic14/gen.c:2316:resultRemat *{*
                      02100 ;;; /home/sdcc-builder/build/sdcc-build/orig/sdcc/src/pic14/gen.c:5418:genGenericShift *{*
gpasm-1.4.0 #1106 (Oct  6 2014) obj\Debug\gpi   8-17-2021  02:09:23         PAGE 41


LOC    OBJECT CODE    LINE  SOURCE TEXT
  VALUE

                      02101 ;; ***  genGenericShift  5421
                      02102 ;;      694 register type nRegs=1
                      02103 ;;      694 register type nRegs=2
                      02104 ;;      694 register type nRegs=2
                      02105 ;; ***  mov2w  1381  offset=1
                      02106 ;; >>> /home/sdcc-builder/build/sdcc-build/orig/sdcc/src/pic14/gen.c:1386:mov2w
                      02107 ;;      1109 rIdx = r0x1063 
0224   08??           02108         MOVF    r0x1009,W
                      02109 ;; >>> /home/sdcc-builder/build/sdcc-build/orig/sdcc/src/pic14/gen.c:1393:movwf
                      02110 ;;      1109 rIdx = r0x1065 
0225   00??           02111         MOVWF   r0x100B
                      02112 ;; ***  mov2w  1381  offset=0
                      02113 ;; >>> /home/sdcc-builder/build/sdcc-build/orig/sdcc/src/pic14/gen.c:1386:mov2w
                      02114 ;;      1109 rIdx = r0x1060 
0226   08??           02115         MOVF    r0x1006,W
                      02116 ;; >>> /home/sdcc-builder/build/sdcc-build/orig/sdcc/src/pic14/gen.c:1393:movwf
                      02117 ;;      1109 rIdx = r0x1064 
0227   00??           02118         MOVWF   r0x100A
                      02119 ;; ***  addSign  861
                      02120 ;;; /home/sdcc-builder/build/sdcc-build/orig/sdcc/src/pic14/genarith.c:862:addSign *{*
                      02121 ;; ***  mov2w  1381  offset=0
                      02122 ;; >>> /home/sdcc-builder/build/sdcc-build/orig/sdcc/src/pic14/gen.c:1386:mov2w
                      02123 ;;      1109 rIdx = r0x1061 
0228   08??           02124         MOVF    r0x1007,W
                      02125 ;; >>> /home/sdcc-builder/build/sdcc-build/orig/sdcc/src/pic14/gen.c:5492:genGenericShift
0229   3C00           02126         SUBLW   0x00
                      02127 ;; >>> /home/sdcc-builder/build/sdcc-build/orig/sdcc/src/pic14/gen.c:5494:genGenericShift
022A   1903           02128         BTFSC   STATUS,2
                      02129 ;; >>> /home/sdcc-builder/build/sdcc-build/orig/sdcc/src/pic14/gen.c:5495:genGenericShift
                      02130 ;; ***  popGetLabel  key=34, label offset 168
022B   2???           02131         GOTO    _00302_DS_
                      02132 ;;; /home/sdcc-builder/build/sdcc-build/orig/sdcc/src/pic14/gen.c:5400:loadSignToC *{*
                      02133 ;; >>> /home/sdcc-builder/build/sdcc-build/orig/sdcc/src/pic14/gen.c:5403:loadSignToC
022C                  02134 _00301_DS_
022C   1003           02135         BCF     STATUS,0
                      02136 ;; >>> /home/sdcc-builder/build/sdcc-build/orig/sdcc/src/pic14/gen.c:5404:loadSignToC
022D   ???? ????      02137         BANKSEL r0x100B
022F   1B??           02138         BTFSC   r0x100B,7
                      02139 ;; >>> /home/sdcc-builder/build/sdcc-build/orig/sdcc/src/pic14/gen.c:5405:loadSignToC
0230   1403           02140         BSF     STATUS,0
                      02141 ;;; /home/sdcc-builder/build/sdcc-build/orig/sdcc/src/pic14/gen.c:5369:genMultiAsm *{*
                      02142 ;; ***  genMultiAsm  5370
                      02143 ;; >>> /home/sdcc-builder/build/sdcc-build/orig/sdcc/src/pic14/gen.c:5387:genMultiAsm
                      02144 ;;      1109 rIdx = r0x1065 
0231   0C??           02145         RRF     r0x100B,F
                      02146 ;; >>> /home/sdcc-builder/build/sdcc-build/orig/sdcc/src/pic14/gen.c:5387:genMultiAsm
                      02147 ;;      1109 rIdx = r0x1064 
0232   0C??           02148         RRF     r0x100A,F
                      02149 ;; >>> /home/sdcc-builder/build/sdcc-build/orig/sdcc/src/pic14/gen.c:5501:genGenericShift
0233   3E01           02150         ADDLW   0x01
                      02151 ;; >>> /home/sdcc-builder/build/sdcc-build/orig/sdcc/src/pic14/gen.c:5502:genGenericShift
0234   1C03           02152         BTFSS   STATUS,0
                      02153 ;; >>> /home/sdcc-builder/build/sdcc-build/orig/sdcc/src/pic14/gen.c:5503:genGenericShift
gpasm-1.4.0 #1106 (Oct  6 2014) obj\Debug\gpi   8-17-2021  02:09:23         PAGE 42


LOC    OBJECT CODE    LINE  SOURCE TEXT
  VALUE

                      02154 ;; ***  popGetLabel  key=33, label offset 168
0235   2???           02155         GOTO    _00301_DS_
                      02156 ;;; /home/sdcc-builder/build/sdcc-build/orig/sdcc/src/pic14/gen.c:2316:resultRemat *{*
                      02157 ;;; /home/sdcc-builder/build/sdcc-build/orig/sdcc/src/pic14/gen.c:7120:genCast *{*
                      02158 ;; ***  genCast  7121
                      02159 ;;      694 register type nRegs=2
                      02160 ;;      694 register type nRegs=1
                      02161 ;;      line = 7129 result AOP_REG=r0x1062, size=1, left -=-, size=0, right AOP_REG=r0x1064, size=2
                      02162 ;; ***  genCast  7253
                      02163 ;; >>> /home/sdcc-builder/build/sdcc-build/orig/sdcc/src/pic14/gen.c:7277:genCast
                      02164 ;;      1109 rIdx = r0x1064 
0236                  02165 _00302_DS_
0236   ???? ????      02166         BANKSEL r0x100A
0238   08??           02167         MOVF    r0x100A,W
                      02168 ;; >>> /home/sdcc-builder/build/sdcc-build/orig/sdcc/src/pic14/gen.c:7278:genCast
                      02169 ;;      1109 rIdx = r0x1062 
0239   00??           02170         MOVWF   r0x1008
                      02171 ;;; /home/sdcc-builder/build/sdcc-build/orig/sdcc/src/pic14/gen.c:2316:resultRemat *{*
                      02172 ;;; /home/sdcc-builder/build/sdcc-build/orig/sdcc/src/pic14/gen.c:2760:genLabel *{*
                      02173 ;; ***  genLabel  2763
                      02174 ;;; /home/sdcc-builder/build/sdcc-build/orig/sdcc/src/pic14/gen.c:2316:resultRemat *{*
                      02175 ;;; /home/sdcc-builder/build/sdcc-build/orig/sdcc/src/pic14/gen.c:2683:genRet *{*
                      02176 ;; ***  genRet  2685
                      02177 ;;      694 register type nRegs=1
                      02178 ;;; /home/sdcc-builder/build/sdcc-build/orig/sdcc/src/pic14/gen.c:1343:mov2w_op *{*
                      02179 ;; ***  mov2w  1381  offset=0
                      02180 ;; >>> /home/sdcc-builder/build/sdcc-build/orig/sdcc/src/pic14/gen.c:1386:mov2w
                      02181 ;;      1109 rIdx = r0x1062 
023A                  02182 _00275_DS_
                      02183         .line   205; "gpio.c"   return ret ;
023A   ???? ????      02184         BANKSEL r0x1008
023C   08??           02185         MOVF    r0x1008,W
                      02186 ;;; /home/sdcc-builder/build/sdcc-build/orig/sdcc/src/pic14/gen.c:2316:resultRemat *{*
                      02187 ;;; /home/sdcc-builder/build/sdcc-build/orig/sdcc/src/pic14/gen.c:2760:genLabel *{*
                      02188 ;; ***  genLabel  2763
                      02189 ;;; /home/sdcc-builder/build/sdcc-build/orig/sdcc/src/pic14/gen.c:2316:resultRemat *{*
                      02190 ;;; /home/sdcc-builder/build/sdcc-build/orig/sdcc/src/pic14/gen.c:2528:genEndFunction *{*
                      02191 ;; ***  genEndFunction  2530
023D   0008           02192         RETURN  
                      02193 ; exit point of _GPIO_GetPinState
                      02194 ;;; /home/sdcc-builder/build/sdcc-build/orig/sdcc/src/pic14/gen.c:7426:genpic14Code *{*
                      02195 
                      02196 ;***
                      02197 ;  pBlock Stats: dbName = C
                      02198 ;***
                      02199 ;entry:  _GPIO_GetPortDirection ;Function start
                      02200 ; 2 exit points
                      02201 ;has an exit
                      02202 ;2 compiler assigned registers:
                      02203 ;   r0x100C
                      02204 ;   r0x100D
                      02205 ;; Starting pCode block
                      02206 ;;; /home/sdcc-builder/build/sdcc-build/orig/sdcc/src/pic14/gen.c:2316:resultRemat *{*
gpasm-1.4.0 #1106 (Oct  6 2014) obj\Debug\gpi   8-17-2021  02:09:23         PAGE 43


LOC    OBJECT CODE    LINE  SOURCE TEXT
  VALUE

                      02207 ;;; /home/sdcc-builder/build/sdcc-build/orig/sdcc/src/pic14/gen.c:2760:genLabel *{*
                      02208 ;; ***  genLabel  2763
                      02209 ;;; /home/sdcc-builder/build/sdcc-build/orig/sdcc/src/pic14/gen.c:2316:resultRemat *{*
                      02210 ;;; /home/sdcc-builder/build/sdcc-build/orig/sdcc/src/pic14/gen.c:2340:genFunction *{*
                      02211 ;; ***  genFunction  2342 curr label offset=132previous max_key=14 
023E                  02212 _GPIO_GetPortDirection  ;Function start
                      02213 ; 2 exit points
                      02214 ;;; /home/sdcc-builder/build/sdcc-build/orig/sdcc/src/pic14/gen.c:2316:resultRemat *{*
                      02215 ;;; /home/sdcc-builder/build/sdcc-build/orig/sdcc/src/pic14/gen.c:7358:genReceive *{*
                      02216 ;; ***  genReceive  7359
                      02217 ;;      694 register type nRegs=1
                      02218 ;;; /home/sdcc-builder/build/sdcc-build/orig/sdcc/src/pic14/gen.c:1907:assignResultValue *{*
                      02219 ;; ***  assignResultValue  1909
                      02220 ;;      line = 1911 result -=-, size=0, left AOP_REG=r0x105E, size=1, right -=-, size=0
                      02221 ;; >>> /home/sdcc-builder/build/sdcc-build/orig/sdcc/src/pic14/gen.c:1393:movwf
                      02222 ;;      1109 rIdx = r0x105E 
                      02223         .line   155; "gpio.c"   U8 GPIO_GetPortDirection(tPORT port)
023E   ???? ????      02224         BANKSEL r0x100C
0240   00??           02225         MOVWF   r0x100C
                      02226 ;;; /home/sdcc-builder/build/sdcc-build/orig/sdcc/src/pic14/gen.c:2316:resultRemat *{*
                      02227 ;;; /home/sdcc-builder/build/sdcc-build/orig/sdcc/src/pic14/gen.c:6927:genAssign *{*
                      02228 ;; ***  genAssign  6928
                      02229 ;;      694 register type nRegs=1
                      02230 ;;      line = 6937 result AOP_REG=r0x105F, size=1, left -=-, size=0, right AOP_LIT=0x00, size=1
                      02231 ;; ***  genAssign  7023
                      02232 ;; >>> /home/sdcc-builder/build/sdcc-build/orig/sdcc/src/pic14/gen.c:7035:genAssign
                      02233 ;;      1109 rIdx = r0x105F 
                      02234         .line   157; "gpio.c"   U8 ret = 0 ;
0241   01??           02235         CLRF    r0x100D
                      02236 ;;; /home/sdcc-builder/build/sdcc-build/orig/sdcc/src/pic14/gen.c:2316:resultRemat *{*
                      02237 ;;; /home/sdcc-builder/build/sdcc-build/orig/sdcc/src/pic14/gen.c:3547:genCmpGt *{*
                      02238 ;; ***  genCmpGt  3548
                      02239 ;;      694 register type nRegs=1
                      02240 ;;; /home/sdcc-builder/build/sdcc-build/orig/sdcc/src/pic14/gen.c:3294:genCmp *{*
                      02241 ;;swapping arguments (AOP_TYPEs 1/2)
                      02242 ;;unsigned compare: left >= lit(0x5=5), size=1
                      02243 ;; >>> /home/sdcc-builder/build/sdcc-build/orig/sdcc/src/pic14/gen.c:3265:pic14_mov2w_regOrLit
                      02244         .line   158; "gpio.c"   switch(port)
0242   3005           02245         MOVLW   0x05
                      02246 ;; >>> /home/sdcc-builder/build/sdcc-build/orig/sdcc/src/pic14/gen.c:3432:genCmp
                      02247 ;;      1109 rIdx = r0x105E 
0243   02??           02248         SUBWF   r0x100C,W
                      02249 ;;; /home/sdcc-builder/build/sdcc-build/orig/sdcc/src/pic14/gen.c:3237:genSkipc *{*
                      02250 ;; >>> /home/sdcc-builder/build/sdcc-build/orig/sdcc/src/pic14/gen.c:3242:genSkipc
0244   1803           02251         BTFSC   STATUS,0
                      02252 ;; >>> /home/sdcc-builder/build/sdcc-build/orig/sdcc/src/pic14/gen.c:3246:genSkipc
                      02253 ;; ***  popGetLabel  key=7, label offset 150
0245   2???           02254         GOTO    _00257_DS_
                      02255 ;;genSkipc:3247: created from rifx:027A5DF4
                      02256 ;;; /home/sdcc-builder/build/sdcc-build/orig/sdcc/src/pic14/gen.c:2316:resultRemat *{*
                      02257 ;;; /home/sdcc-builder/build/sdcc-build/orig/sdcc/src/pic14/gen.c:2316:resultRemat *{*
                      02258 ;;; /home/sdcc-builder/build/sdcc-build/orig/sdcc/src/pic14/gen.c:7071:genJumpTab *{*
                      02259 ;; ***  genJumpTab  7072
gpasm-1.4.0 #1106 (Oct  6 2014) obj\Debug\gpi   8-17-2021  02:09:23         PAGE 44


LOC    OBJECT CODE    LINE  SOURCE TEXT
  VALUE

                      02260 ;;      694 register type nRegs=1
                      02261 ;; >>> /home/sdcc-builder/build/sdcc-build/orig/sdcc/src/pic14/gen.c:7087:genJumpTab
                      02262 ;; ***  popGetLabel  key=14, label offset 150
0246   30??           02263         MOVLW   HIGH(_00264_DS_)
                      02264 ;; >>> /home/sdcc-builder/build/sdcc-build/orig/sdcc/src/pic14/gen.c:7088:genJumpTab
0247   1283 1303      02265         BANKSEL PCLATH
0249   008A           02266         MOVWF   PCLATH
                      02267 ;; >>> /home/sdcc-builder/build/sdcc-build/orig/sdcc/src/pic14/gen.c:7089:genJumpTab
                      02268 ;; ***  popGetLabel  key=14, label offset 150
024A   30??           02269         MOVLW   _00264_DS_
                      02270 ;; >>> /home/sdcc-builder/build/sdcc-build/orig/sdcc/src/pic14/gen.c:7090:genJumpTab
                      02271 ;;      1109 rIdx = r0x105E 
024B   ???? ????      02272         BANKSEL r0x100C
024D   07??           02273         ADDWF   r0x100C,W
                      02274 ;; >>> /home/sdcc-builder/build/sdcc-build/orig/sdcc/src/pic14/gen.c:7091:genJumpTab
024E   1C03           02275         BTFSS   STATUS,0
024F   2???           02276         GOTO    _00003_DS_
                      02277 ;; >>> /home/sdcc-builder/build/sdcc-build/orig/sdcc/src/pic14/gen.c:7092:genJumpTab
0250   1283 1303      02278         BANKSEL PCLATH
0252   0A8A           02279         INCF    PCLATH,F
                      02280 ;; >>> /home/sdcc-builder/build/sdcc-build/orig/sdcc/src/pic14/gen.c:7093:genJumpTab
0253                  02281 _00003_DS_
0253   0082           02282         MOVWF   PCL
                      02283 ;; >>> /home/sdcc-builder/build/sdcc-build/orig/sdcc/src/pic14/gen.c:7102:genJumpTab
                      02284 ;; ***  popGetLabel  key=1, label offset 150
0254                  02285 _00264_DS_
0254   2???           02286         GOTO    _00251_DS_
                      02287 ;; >>> /home/sdcc-builder/build/sdcc-build/orig/sdcc/src/pic14/gen.c:7102:genJumpTab
                      02288 ;; ***  popGetLabel  key=2, label offset 150
0255   2???           02289         GOTO    _00252_DS_
                      02290 ;; >>> /home/sdcc-builder/build/sdcc-build/orig/sdcc/src/pic14/gen.c:7102:genJumpTab
                      02291 ;; ***  popGetLabel  key=3, label offset 150
0256   2???           02292         GOTO    _00253_DS_
                      02293 ;; >>> /home/sdcc-builder/build/sdcc-build/orig/sdcc/src/pic14/gen.c:7102:genJumpTab
                      02294 ;; ***  popGetLabel  key=4, label offset 150
0257   2???           02295         GOTO    _00254_DS_
                      02296 ;; >>> /home/sdcc-builder/build/sdcc-build/orig/sdcc/src/pic14/gen.c:7102:genJumpTab
                      02297 ;; ***  popGetLabel  key=5, label offset 150
0258   2???           02298         GOTO    _00255_DS_
                      02299 ;;; /home/sdcc-builder/build/sdcc-build/orig/sdcc/src/pic14/gen.c:2316:resultRemat *{*
                      02300 ;;; /home/sdcc-builder/build/sdcc-build/orig/sdcc/src/pic14/gen.c:2760:genLabel *{*
                      02301 ;; ***  genLabel  2763
                      02302 ;;; /home/sdcc-builder/build/sdcc-build/orig/sdcc/src/pic14/gen.c:2316:resultRemat *{*
                      02303 ;;; /home/sdcc-builder/build/sdcc-build/orig/sdcc/src/pic14/gen.c:6927:genAssign *{*
                      02304 ;; ***  genAssign  6928
                      02305 ;; ***  aopForSym 315
                      02306 ;;      327 sym->rname = _TRISA, size = 1
                      02307 ;;      694 register type nRegs=1
                      02308 ;;      line = 6937 result AOP_REG=r0x105F, size=1, left -=-, size=0, right AOP_DIR=_TRISA, size=1
                      02309 ;; ***  genAssign  7007
                      02310 ;; WARNING      genAssign  7016 ignoring register storage
                      02311 ;; ***  genAssign  7023
                      02312 ;;; /home/sdcc-builder/build/sdcc-build/orig/sdcc/src/pic14/gen.c:1343:mov2w_op *{*
gpasm-1.4.0 #1106 (Oct  6 2014) obj\Debug\gpi   8-17-2021  02:09:23         PAGE 45


LOC    OBJECT CODE    LINE  SOURCE TEXT
  VALUE

                      02313 ;; ***  mov2w  1381  offset=0
                      02314 ;; >>> /home/sdcc-builder/build/sdcc-build/orig/sdcc/src/pic14/gen.c:1386:mov2w
                      02315 ;;      1009
                      02316 ;;      1028  _TRISA   offset=0
0259                  02317 _00251_DS_
                      02318         .line   161; "gpio.c"   ret=  ReadRegisterValue(DIRECTION_REGISTER_PORTA) ;
0259   ???? ????      02319         BANKSEL _TRISA
025B   08??           02320         MOVF    _TRISA,W
                      02321 ;; >>> /home/sdcc-builder/build/sdcc-build/orig/sdcc/src/pic14/gen.c:7050:genAssign
                      02322 ;;      1109 rIdx = r0x105F 
025C   ???? ????      02323         BANKSEL r0x100D
025E   00??           02324         MOVWF   r0x100D
                      02325 ;;; /home/sdcc-builder/build/sdcc-build/orig/sdcc/src/pic14/gen.c:2316:resultRemat *{*
                      02326 ;;; /home/sdcc-builder/build/sdcc-build/orig/sdcc/src/pic14/gen.c:2778:genGoto *{*
                      02327 ;; >>> /home/sdcc-builder/build/sdcc-build/orig/sdcc/src/pic14/gen.c:2780:genGoto
                      02328 ;; ***  popGetLabel  key=7, label offset 150
                      02329         .line   162; "gpio.c"   break;
025F   2???           02330         GOTO    _00257_DS_
                      02331 ;;; /home/sdcc-builder/build/sdcc-build/orig/sdcc/src/pic14/gen.c:2316:resultRemat *{*
                      02332 ;;; /home/sdcc-builder/build/sdcc-build/orig/sdcc/src/pic14/gen.c:2760:genLabel *{*
                      02333 ;; ***  genLabel  2763
                      02334 ;;; /home/sdcc-builder/build/sdcc-build/orig/sdcc/src/pic14/gen.c:2316:resultRemat *{*
                      02335 ;;; /home/sdcc-builder/build/sdcc-build/orig/sdcc/src/pic14/gen.c:6927:genAssign *{*
                      02336 ;; ***  genAssign  6928
                      02337 ;; ***  aopForSym 315
                      02338 ;;      327 sym->rname = _TRISB, size = 1
                      02339 ;;      694 register type nRegs=1
                      02340 ;;      line = 6937 result AOP_REG=r0x105F, size=1, left -=-, size=0, right AOP_DIR=_TRISB, size=1
                      02341 ;; ***  genAssign  7007
                      02342 ;; WARNING      genAssign  7016 ignoring register storage
                      02343 ;; ***  genAssign  7023
                      02344 ;;; /home/sdcc-builder/build/sdcc-build/orig/sdcc/src/pic14/gen.c:1343:mov2w_op *{*
                      02345 ;; ***  mov2w  1381  offset=0
                      02346 ;; >>> /home/sdcc-builder/build/sdcc-build/orig/sdcc/src/pic14/gen.c:1386:mov2w
                      02347 ;;      1009
                      02348 ;;      1028  _TRISB   offset=0
0260                  02349 _00252_DS_
                      02350         .line   164; "gpio.c"   ret=  ReadRegisterValue(DIRECTION_REGISTER_PORTB) ;
0260   ???? ????      02351         BANKSEL _TRISB
0262   08??           02352         MOVF    _TRISB,W
                      02353 ;; >>> /home/sdcc-builder/build/sdcc-build/orig/sdcc/src/pic14/gen.c:7050:genAssign
                      02354 ;;      1109 rIdx = r0x105F 
0263   ???? ????      02355         BANKSEL r0x100D
0265   00??           02356         MOVWF   r0x100D
                      02357 ;;; /home/sdcc-builder/build/sdcc-build/orig/sdcc/src/pic14/gen.c:2316:resultRemat *{*
                      02358 ;;; /home/sdcc-builder/build/sdcc-build/orig/sdcc/src/pic14/gen.c:2778:genGoto *{*
                      02359 ;; >>> /home/sdcc-builder/build/sdcc-build/orig/sdcc/src/pic14/gen.c:2780:genGoto
                      02360 ;; ***  popGetLabel  key=7, label offset 150
                      02361         .line   165; "gpio.c"   break;
0266   2???           02362         GOTO    _00257_DS_
                      02363 ;;; /home/sdcc-builder/build/sdcc-build/orig/sdcc/src/pic14/gen.c:2316:resultRemat *{*
                      02364 ;;; /home/sdcc-builder/build/sdcc-build/orig/sdcc/src/pic14/gen.c:2760:genLabel *{*
                      02365 ;; ***  genLabel  2763
gpasm-1.4.0 #1106 (Oct  6 2014) obj\Debug\gpi   8-17-2021  02:09:23         PAGE 46


LOC    OBJECT CODE    LINE  SOURCE TEXT
  VALUE

                      02366 ;;; /home/sdcc-builder/build/sdcc-build/orig/sdcc/src/pic14/gen.c:2316:resultRemat *{*
                      02367 ;;; /home/sdcc-builder/build/sdcc-build/orig/sdcc/src/pic14/gen.c:6927:genAssign *{*
                      02368 ;; ***  genAssign  6928
                      02369 ;; ***  aopForSym 315
                      02370 ;;      327 sym->rname = _TRISC, size = 1
                      02371 ;;      694 register type nRegs=1
                      02372 ;;      line = 6937 result AOP_REG=r0x105F, size=1, left -=-, size=0, right AOP_DIR=_TRISC, size=1
                      02373 ;; ***  genAssign  7007
                      02374 ;; WARNING      genAssign  7016 ignoring register storage
                      02375 ;; ***  genAssign  7023
                      02376 ;;; /home/sdcc-builder/build/sdcc-build/orig/sdcc/src/pic14/gen.c:1343:mov2w_op *{*
                      02377 ;; ***  mov2w  1381  offset=0
                      02378 ;; >>> /home/sdcc-builder/build/sdcc-build/orig/sdcc/src/pic14/gen.c:1386:mov2w
                      02379 ;;      1009
                      02380 ;;      1028  _TRISC   offset=0
0267                  02381 _00253_DS_
                      02382         .line   167; "gpio.c"   ret=  ReadRegisterValue(DIRECTION_REGISTER_PORTC) ;
0267   ???? ????      02383         BANKSEL _TRISC
0269   08??           02384         MOVF    _TRISC,W
                      02385 ;; >>> /home/sdcc-builder/build/sdcc-build/orig/sdcc/src/pic14/gen.c:7050:genAssign
                      02386 ;;      1109 rIdx = r0x105F 
026A   ???? ????      02387         BANKSEL r0x100D
026C   00??           02388         MOVWF   r0x100D
                      02389 ;;; /home/sdcc-builder/build/sdcc-build/orig/sdcc/src/pic14/gen.c:2316:resultRemat *{*
                      02390 ;;; /home/sdcc-builder/build/sdcc-build/orig/sdcc/src/pic14/gen.c:2778:genGoto *{*
                      02391 ;; >>> /home/sdcc-builder/build/sdcc-build/orig/sdcc/src/pic14/gen.c:2780:genGoto
                      02392 ;; ***  popGetLabel  key=7, label offset 150
                      02393         .line   168; "gpio.c"   break;
026D   2???           02394         GOTO    _00257_DS_
                      02395 ;;; /home/sdcc-builder/build/sdcc-build/orig/sdcc/src/pic14/gen.c:2316:resultRemat *{*
                      02396 ;;; /home/sdcc-builder/build/sdcc-build/orig/sdcc/src/pic14/gen.c:2760:genLabel *{*
                      02397 ;; ***  genLabel  2763
                      02398 ;;; /home/sdcc-builder/build/sdcc-build/orig/sdcc/src/pic14/gen.c:2316:resultRemat *{*
                      02399 ;;; /home/sdcc-builder/build/sdcc-build/orig/sdcc/src/pic14/gen.c:6927:genAssign *{*
                      02400 ;; ***  genAssign  6928
                      02401 ;; ***  aopForSym 315
                      02402 ;;      327 sym->rname = _TRISD, size = 1
                      02403 ;;      694 register type nRegs=1
                      02404 ;;      line = 6937 result AOP_REG=r0x105F, size=1, left -=-, size=0, right AOP_DIR=_TRISD, size=1
                      02405 ;; ***  genAssign  7007
                      02406 ;; WARNING      genAssign  7016 ignoring register storage
                      02407 ;; ***  genAssign  7023
                      02408 ;;; /home/sdcc-builder/build/sdcc-build/orig/sdcc/src/pic14/gen.c:1343:mov2w_op *{*
                      02409 ;; ***  mov2w  1381  offset=0
                      02410 ;; >>> /home/sdcc-builder/build/sdcc-build/orig/sdcc/src/pic14/gen.c:1386:mov2w
                      02411 ;;      1009
                      02412 ;;      1028  _TRISD   offset=0
026E                  02413 _00254_DS_
                      02414         .line   170; "gpio.c"   ret=  ReadRegisterValue(DIRECTION_REGISTER_PORTD) ;
026E   ???? ????      02415         BANKSEL _TRISD
0270   08??           02416         MOVF    _TRISD,W
                      02417 ;; >>> /home/sdcc-builder/build/sdcc-build/orig/sdcc/src/pic14/gen.c:7050:genAssign
                      02418 ;;      1109 rIdx = r0x105F 
gpasm-1.4.0 #1106 (Oct  6 2014) obj\Debug\gpi   8-17-2021  02:09:23         PAGE 47


LOC    OBJECT CODE    LINE  SOURCE TEXT
  VALUE

0271   ???? ????      02419         BANKSEL r0x100D
0273   00??           02420         MOVWF   r0x100D
                      02421 ;;; /home/sdcc-builder/build/sdcc-build/orig/sdcc/src/pic14/gen.c:2316:resultRemat *{*
                      02422 ;;; /home/sdcc-builder/build/sdcc-build/orig/sdcc/src/pic14/gen.c:2778:genGoto *{*
                      02423 ;; >>> /home/sdcc-builder/build/sdcc-build/orig/sdcc/src/pic14/gen.c:2780:genGoto
                      02424 ;; ***  popGetLabel  key=7, label offset 150
                      02425         .line   171; "gpio.c"   break;
0274   2???           02426         GOTO    _00257_DS_
                      02427 ;;; /home/sdcc-builder/build/sdcc-build/orig/sdcc/src/pic14/gen.c:2316:resultRemat *{*
                      02428 ;;; /home/sdcc-builder/build/sdcc-build/orig/sdcc/src/pic14/gen.c:2760:genLabel *{*
                      02429 ;; ***  genLabel  2763
                      02430 ;;; /home/sdcc-builder/build/sdcc-build/orig/sdcc/src/pic14/gen.c:2316:resultRemat *{*
                      02431 ;;; /home/sdcc-builder/build/sdcc-build/orig/sdcc/src/pic14/gen.c:6927:genAssign *{*
                      02432 ;; ***  genAssign  6928
                      02433 ;; ***  aopForSym 315
                      02434 ;;      327 sym->rname = _TRISE, size = 1
                      02435 ;;      694 register type nRegs=1
                      02436 ;;      line = 6937 result AOP_REG=r0x105F, size=1, left -=-, size=0, right AOP_DIR=_TRISE, size=1
                      02437 ;; ***  genAssign  7007
                      02438 ;; WARNING      genAssign  7016 ignoring register storage
                      02439 ;; ***  genAssign  7023
                      02440 ;;; /home/sdcc-builder/build/sdcc-build/orig/sdcc/src/pic14/gen.c:1343:mov2w_op *{*
                      02441 ;; ***  mov2w  1381  offset=0
                      02442 ;; >>> /home/sdcc-builder/build/sdcc-build/orig/sdcc/src/pic14/gen.c:1386:mov2w
                      02443 ;;      1009
                      02444 ;;      1028  _TRISE   offset=0
0275                  02445 _00255_DS_
                      02446         .line   173; "gpio.c"   ret=  ReadRegisterValue(DIRECTION_REGISTER_PORTE) ;
0275   ???? ????      02447         BANKSEL _TRISE
0277   08??           02448         MOVF    _TRISE,W
                      02449 ;; >>> /home/sdcc-builder/build/sdcc-build/orig/sdcc/src/pic14/gen.c:7050:genAssign
                      02450 ;;      1109 rIdx = r0x105F 
0278   ???? ????      02451         BANKSEL r0x100D
027A   00??           02452         MOVWF   r0x100D
                      02453 ;;; /home/sdcc-builder/build/sdcc-build/orig/sdcc/src/pic14/gen.c:2316:resultRemat *{*
                      02454 ;;; /home/sdcc-builder/build/sdcc-build/orig/sdcc/src/pic14/gen.c:2760:genLabel *{*
                      02455 ;; ***  genLabel  2763
                      02456 ;;; /home/sdcc-builder/build/sdcc-build/orig/sdcc/src/pic14/gen.c:2316:resultRemat *{*
                      02457 ;;; /home/sdcc-builder/build/sdcc-build/orig/sdcc/src/pic14/gen.c:2683:genRet *{*
                      02458 ;; ***  genRet  2685
                      02459 ;;      694 register type nRegs=1
                      02460 ;;; /home/sdcc-builder/build/sdcc-build/orig/sdcc/src/pic14/gen.c:1343:mov2w_op *{*
                      02461 ;; ***  mov2w  1381  offset=0
                      02462 ;; >>> /home/sdcc-builder/build/sdcc-build/orig/sdcc/src/pic14/gen.c:1386:mov2w
                      02463 ;;      1109 rIdx = r0x105F 
027B                  02464 _00257_DS_
                      02465         .line   179; "gpio.c"   return ret ;
027B   ???? ????      02466         BANKSEL r0x100D
027D   08??           02467         MOVF    r0x100D,W
                      02468 ;;; /home/sdcc-builder/build/sdcc-build/orig/sdcc/src/pic14/gen.c:2316:resultRemat *{*
                      02469 ;;; /home/sdcc-builder/build/sdcc-build/orig/sdcc/src/pic14/gen.c:2760:genLabel *{*
                      02470 ;; ***  genLabel  2763
                      02471 ;;; /home/sdcc-builder/build/sdcc-build/orig/sdcc/src/pic14/gen.c:2316:resultRemat *{*
gpasm-1.4.0 #1106 (Oct  6 2014) obj\Debug\gpi   8-17-2021  02:09:23         PAGE 48


LOC    OBJECT CODE    LINE  SOURCE TEXT
  VALUE

                      02472 ;;; /home/sdcc-builder/build/sdcc-build/orig/sdcc/src/pic14/gen.c:2528:genEndFunction *{*
                      02473 ;; ***  genEndFunction  2530
027E   0008           02474         RETURN  
                      02475 ; exit point of _GPIO_GetPortDirection
                      02476 ;;; /home/sdcc-builder/build/sdcc-build/orig/sdcc/src/pic14/gen.c:7426:genpic14Code *{*
                      02477 
                      02478 ;***
                      02479 ;  pBlock Stats: dbName = C
                      02480 ;***
                      02481 ;entry:  _GPIO_GetPortState     ;Function start
                      02482 ; 2 exit points
                      02483 ;has an exit
                      02484 ;2 compiler assigned registers:
                      02485 ;   r0x100E
                      02486 ;   r0x100F
                      02487 ;; Starting pCode block
                      02488 ;;; /home/sdcc-builder/build/sdcc-build/orig/sdcc/src/pic14/gen.c:2316:resultRemat *{*
                      02489 ;;; /home/sdcc-builder/build/sdcc-build/orig/sdcc/src/pic14/gen.c:2760:genLabel *{*
                      02490 ;; ***  genLabel  2763
                      02491 ;;; /home/sdcc-builder/build/sdcc-build/orig/sdcc/src/pic14/gen.c:2316:resultRemat *{*
                      02492 ;;; /home/sdcc-builder/build/sdcc-build/orig/sdcc/src/pic14/gen.c:2340:genFunction *{*
                      02493 ;; ***  genFunction  2342 curr label offset=94previous max_key=34 
027F                  02494 _GPIO_GetPortState      ;Function start
                      02495 ; 2 exit points
                      02496 ;;; /home/sdcc-builder/build/sdcc-build/orig/sdcc/src/pic14/gen.c:2316:resultRemat *{*
                      02497 ;;; /home/sdcc-builder/build/sdcc-build/orig/sdcc/src/pic14/gen.c:7358:genReceive *{*
                      02498 ;; ***  genReceive  7359
                      02499 ;;      694 register type nRegs=1
                      02500 ;;; /home/sdcc-builder/build/sdcc-build/orig/sdcc/src/pic14/gen.c:1907:assignResultValue *{*
                      02501 ;; ***  assignResultValue  1909
                      02502 ;;      line = 1911 result -=-, size=0, left AOP_REG=r0x105C, size=1, right -=-, size=0
                      02503 ;; >>> /home/sdcc-builder/build/sdcc-build/orig/sdcc/src/pic14/gen.c:1393:movwf
                      02504 ;;      1109 rIdx = r0x105C 
                      02505         .line   129; "gpio.c"   U8 GPIO_GetPortState(tPORT port)
027F   ???? ????      02506         BANKSEL r0x100E
0281   00??           02507         MOVWF   r0x100E
                      02508 ;;; /home/sdcc-builder/build/sdcc-build/orig/sdcc/src/pic14/gen.c:2316:resultRemat *{*
                      02509 ;;; /home/sdcc-builder/build/sdcc-build/orig/sdcc/src/pic14/gen.c:6927:genAssign *{*
                      02510 ;; ***  genAssign  6928
                      02511 ;;      694 register type nRegs=1
                      02512 ;;      line = 6937 result AOP_REG=r0x105D, size=1, left -=-, size=0, right AOP_LIT=0x00, size=1
                      02513 ;; ***  genAssign  7023
                      02514 ;; >>> /home/sdcc-builder/build/sdcc-build/orig/sdcc/src/pic14/gen.c:7035:genAssign
                      02515 ;;      1109 rIdx = r0x105D 
                      02516         .line   131; "gpio.c"   unsigned char ret = 0 ;
0282   01??           02517         CLRF    r0x100F
                      02518 ;;; /home/sdcc-builder/build/sdcc-build/orig/sdcc/src/pic14/gen.c:2316:resultRemat *{*
                      02519 ;;; /home/sdcc-builder/build/sdcc-build/orig/sdcc/src/pic14/gen.c:3547:genCmpGt *{*
                      02520 ;; ***  genCmpGt  3548
                      02521 ;;      694 register type nRegs=1
                      02522 ;;; /home/sdcc-builder/build/sdcc-build/orig/sdcc/src/pic14/gen.c:3294:genCmp *{*
                      02523 ;;swapping arguments (AOP_TYPEs 1/2)
                      02524 ;;unsigned compare: left >= lit(0x5=5), size=1
gpasm-1.4.0 #1106 (Oct  6 2014) obj\Debug\gpi   8-17-2021  02:09:23         PAGE 49


LOC    OBJECT CODE    LINE  SOURCE TEXT
  VALUE

                      02525 ;; >>> /home/sdcc-builder/build/sdcc-build/orig/sdcc/src/pic14/gen.c:3265:pic14_mov2w_regOrLit
                      02526         .line   132; "gpio.c"   switch(port)
0283   3005           02527         MOVLW   0x05
                      02528 ;; >>> /home/sdcc-builder/build/sdcc-build/orig/sdcc/src/pic14/gen.c:3432:genCmp
                      02529 ;;      1109 rIdx = r0x105C 
0284   02??           02530         SUBWF   r0x100E,W
                      02531 ;;; /home/sdcc-builder/build/sdcc-build/orig/sdcc/src/pic14/gen.c:3237:genSkipc *{*
                      02532 ;; >>> /home/sdcc-builder/build/sdcc-build/orig/sdcc/src/pic14/gen.c:3242:genSkipc
0285   1803           02533         BTFSC   STATUS,0
                      02534 ;; >>> /home/sdcc-builder/build/sdcc-build/orig/sdcc/src/pic14/gen.c:3246:genSkipc
                      02535 ;; ***  popGetLabel  key=7, label offset 132
0286   2???           02536         GOTO    _00239_DS_
                      02537 ;;genSkipc:3247: created from rifx:027A5DF4
                      02538 ;;; /home/sdcc-builder/build/sdcc-build/orig/sdcc/src/pic14/gen.c:2316:resultRemat *{*
                      02539 ;;; /home/sdcc-builder/build/sdcc-build/orig/sdcc/src/pic14/gen.c:2316:resultRemat *{*
                      02540 ;;; /home/sdcc-builder/build/sdcc-build/orig/sdcc/src/pic14/gen.c:7071:genJumpTab *{*
                      02541 ;; ***  genJumpTab  7072
                      02542 ;;      694 register type nRegs=1
                      02543 ;; >>> /home/sdcc-builder/build/sdcc-build/orig/sdcc/src/pic14/gen.c:7087:genJumpTab
                      02544 ;; ***  popGetLabel  key=14, label offset 132
0287   30??           02545         MOVLW   HIGH(_00246_DS_)
                      02546 ;; >>> /home/sdcc-builder/build/sdcc-build/orig/sdcc/src/pic14/gen.c:7088:genJumpTab
0288   1283 1303      02547         BANKSEL PCLATH
028A   008A           02548         MOVWF   PCLATH
                      02549 ;; >>> /home/sdcc-builder/build/sdcc-build/orig/sdcc/src/pic14/gen.c:7089:genJumpTab
                      02550 ;; ***  popGetLabel  key=14, label offset 132
028B   30??           02551         MOVLW   _00246_DS_
                      02552 ;; >>> /home/sdcc-builder/build/sdcc-build/orig/sdcc/src/pic14/gen.c:7090:genJumpTab
                      02553 ;;      1109 rIdx = r0x105C 
028C   ???? ????      02554         BANKSEL r0x100E
028E   07??           02555         ADDWF   r0x100E,W
                      02556 ;; >>> /home/sdcc-builder/build/sdcc-build/orig/sdcc/src/pic14/gen.c:7091:genJumpTab
028F   1C03           02557         BTFSS   STATUS,0
0290   2???           02558         GOTO    _00004_DS_
                      02559 ;; >>> /home/sdcc-builder/build/sdcc-build/orig/sdcc/src/pic14/gen.c:7092:genJumpTab
0291   1283 1303      02560         BANKSEL PCLATH
0293   0A8A           02561         INCF    PCLATH,F
                      02562 ;; >>> /home/sdcc-builder/build/sdcc-build/orig/sdcc/src/pic14/gen.c:7093:genJumpTab
0294                  02563 _00004_DS_
0294   0082           02564         MOVWF   PCL
                      02565 ;; >>> /home/sdcc-builder/build/sdcc-build/orig/sdcc/src/pic14/gen.c:7102:genJumpTab
                      02566 ;; ***  popGetLabel  key=1, label offset 132
0295                  02567 _00246_DS_
0295   2???           02568         GOTO    _00233_DS_
                      02569 ;; >>> /home/sdcc-builder/build/sdcc-build/orig/sdcc/src/pic14/gen.c:7102:genJumpTab
                      02570 ;; ***  popGetLabel  key=2, label offset 132
0296   2???           02571         GOTO    _00234_DS_
                      02572 ;; >>> /home/sdcc-builder/build/sdcc-build/orig/sdcc/src/pic14/gen.c:7102:genJumpTab
                      02573 ;; ***  popGetLabel  key=3, label offset 132
0297   2???           02574         GOTO    _00235_DS_
                      02575 ;; >>> /home/sdcc-builder/build/sdcc-build/orig/sdcc/src/pic14/gen.c:7102:genJumpTab
                      02576 ;; ***  popGetLabel  key=4, label offset 132
0298   2???           02577         GOTO    _00236_DS_
gpasm-1.4.0 #1106 (Oct  6 2014) obj\Debug\gpi   8-17-2021  02:09:23         PAGE 50


LOC    OBJECT CODE    LINE  SOURCE TEXT
  VALUE

                      02578 ;; >>> /home/sdcc-builder/build/sdcc-build/orig/sdcc/src/pic14/gen.c:7102:genJumpTab
                      02579 ;; ***  popGetLabel  key=5, label offset 132
0299   2???           02580         GOTO    _00237_DS_
                      02581 ;;; /home/sdcc-builder/build/sdcc-build/orig/sdcc/src/pic14/gen.c:2316:resultRemat *{*
                      02582 ;;; /home/sdcc-builder/build/sdcc-build/orig/sdcc/src/pic14/gen.c:2760:genLabel *{*
                      02583 ;; ***  genLabel  2763
                      02584 ;;; /home/sdcc-builder/build/sdcc-build/orig/sdcc/src/pic14/gen.c:2316:resultRemat *{*
                      02585 ;;; /home/sdcc-builder/build/sdcc-build/orig/sdcc/src/pic14/gen.c:6927:genAssign *{*
                      02586 ;; ***  genAssign  6928
                      02587 ;; ***  aopForSym 315
                      02588 ;;      327 sym->rname = _PORTA, size = 1
                      02589 ;;      694 register type nRegs=1
                      02590 ;;      line = 6937 result AOP_REG=r0x105D, size=1, left -=-, size=0, right AOP_DIR=_PORTA, size=1
                      02591 ;; ***  genAssign  7007
                      02592 ;; WARNING      genAssign  7016 ignoring register storage
                      02593 ;; ***  genAssign  7023
                      02594 ;;; /home/sdcc-builder/build/sdcc-build/orig/sdcc/src/pic14/gen.c:1343:mov2w_op *{*
                      02595 ;; ***  mov2w  1381  offset=0
                      02596 ;; >>> /home/sdcc-builder/build/sdcc-build/orig/sdcc/src/pic14/gen.c:1386:mov2w
                      02597 ;;      1009
                      02598 ;;      1028  _PORTA   offset=0
029A                  02599 _00233_DS_
                      02600         .line   135; "gpio.c"   ret=  ReadRegisterValue(DATA_REGISTER_READ_PORTA) ;
029A   ???? ????      02601         BANKSEL _PORTA
029C   08??           02602         MOVF    _PORTA,W
                      02603 ;; >>> /home/sdcc-builder/build/sdcc-build/orig/sdcc/src/pic14/gen.c:7050:genAssign
                      02604 ;;      1109 rIdx = r0x105D 
029D   ???? ????      02605         BANKSEL r0x100F
029F   00??           02606         MOVWF   r0x100F
                      02607 ;;; /home/sdcc-builder/build/sdcc-build/orig/sdcc/src/pic14/gen.c:2316:resultRemat *{*
                      02608 ;;; /home/sdcc-builder/build/sdcc-build/orig/sdcc/src/pic14/gen.c:2778:genGoto *{*
                      02609 ;; >>> /home/sdcc-builder/build/sdcc-build/orig/sdcc/src/pic14/gen.c:2780:genGoto
                      02610 ;; ***  popGetLabel  key=7, label offset 132
                      02611         .line   136; "gpio.c"   break;
02A0   2???           02612         GOTO    _00239_DS_
                      02613 ;;; /home/sdcc-builder/build/sdcc-build/orig/sdcc/src/pic14/gen.c:2316:resultRemat *{*
                      02614 ;;; /home/sdcc-builder/build/sdcc-build/orig/sdcc/src/pic14/gen.c:2760:genLabel *{*
                      02615 ;; ***  genLabel  2763
                      02616 ;;; /home/sdcc-builder/build/sdcc-build/orig/sdcc/src/pic14/gen.c:2316:resultRemat *{*
                      02617 ;;; /home/sdcc-builder/build/sdcc-build/orig/sdcc/src/pic14/gen.c:6927:genAssign *{*
                      02618 ;; ***  genAssign  6928
                      02619 ;; ***  aopForSym 315
                      02620 ;;      327 sym->rname = _PORTB, size = 1
                      02621 ;;      694 register type nRegs=1
                      02622 ;;      line = 6937 result AOP_REG=r0x105D, size=1, left -=-, size=0, right AOP_DIR=_PORTB, size=1
                      02623 ;; ***  genAssign  7007
                      02624 ;; WARNING      genAssign  7016 ignoring register storage
                      02625 ;; ***  genAssign  7023
                      02626 ;;; /home/sdcc-builder/build/sdcc-build/orig/sdcc/src/pic14/gen.c:1343:mov2w_op *{*
                      02627 ;; ***  mov2w  1381  offset=0
                      02628 ;; >>> /home/sdcc-builder/build/sdcc-build/orig/sdcc/src/pic14/gen.c:1386:mov2w
                      02629 ;;      1009
                      02630 ;;      1028  _PORTB   offset=0
gpasm-1.4.0 #1106 (Oct  6 2014) obj\Debug\gpi   8-17-2021  02:09:23         PAGE 51


LOC    OBJECT CODE    LINE  SOURCE TEXT
  VALUE

02A1                  02631 _00234_DS_
                      02632         .line   138; "gpio.c"   ret=  ReadRegisterValue(DATA_REGISTER_READ_PORTB) ;
02A1   ???? ????      02633         BANKSEL _PORTB
02A3   08??           02634         MOVF    _PORTB,W
                      02635 ;; >>> /home/sdcc-builder/build/sdcc-build/orig/sdcc/src/pic14/gen.c:7050:genAssign
                      02636 ;;      1109 rIdx = r0x105D 
02A4   ???? ????      02637         BANKSEL r0x100F
02A6   00??           02638         MOVWF   r0x100F
                      02639 ;;; /home/sdcc-builder/build/sdcc-build/orig/sdcc/src/pic14/gen.c:2316:resultRemat *{*
                      02640 ;;; /home/sdcc-builder/build/sdcc-build/orig/sdcc/src/pic14/gen.c:2778:genGoto *{*
                      02641 ;; >>> /home/sdcc-builder/build/sdcc-build/orig/sdcc/src/pic14/gen.c:2780:genGoto
                      02642 ;; ***  popGetLabel  key=7, label offset 132
                      02643         .line   139; "gpio.c"   break;
02A7   2???           02644         GOTO    _00239_DS_
                      02645 ;;; /home/sdcc-builder/build/sdcc-build/orig/sdcc/src/pic14/gen.c:2316:resultRemat *{*
                      02646 ;;; /home/sdcc-builder/build/sdcc-build/orig/sdcc/src/pic14/gen.c:2760:genLabel *{*
                      02647 ;; ***  genLabel  2763
                      02648 ;;; /home/sdcc-builder/build/sdcc-build/orig/sdcc/src/pic14/gen.c:2316:resultRemat *{*
                      02649 ;;; /home/sdcc-builder/build/sdcc-build/orig/sdcc/src/pic14/gen.c:6927:genAssign *{*
                      02650 ;; ***  genAssign  6928
                      02651 ;; ***  aopForSym 315
                      02652 ;;      327 sym->rname = _PORTC, size = 1
                      02653 ;;      694 register type nRegs=1
                      02654 ;;      line = 6937 result AOP_REG=r0x105D, size=1, left -=-, size=0, right AOP_DIR=_PORTC, size=1
                      02655 ;; ***  genAssign  7007
                      02656 ;; WARNING      genAssign  7016 ignoring register storage
                      02657 ;; ***  genAssign  7023
                      02658 ;;; /home/sdcc-builder/build/sdcc-build/orig/sdcc/src/pic14/gen.c:1343:mov2w_op *{*
                      02659 ;; ***  mov2w  1381  offset=0
                      02660 ;; >>> /home/sdcc-builder/build/sdcc-build/orig/sdcc/src/pic14/gen.c:1386:mov2w
                      02661 ;;      1009
                      02662 ;;      1028  _PORTC   offset=0
02A8                  02663 _00235_DS_
                      02664         .line   141; "gpio.c"   ret=  ReadRegisterValue(DATA_REGISTER_READ_PORTC) ;
02A8   ???? ????      02665         BANKSEL _PORTC
02AA   08??           02666         MOVF    _PORTC,W
                      02667 ;; >>> /home/sdcc-builder/build/sdcc-build/orig/sdcc/src/pic14/gen.c:7050:genAssign
                      02668 ;;      1109 rIdx = r0x105D 
02AB   ???? ????      02669         BANKSEL r0x100F
02AD   00??           02670         MOVWF   r0x100F
                      02671 ;;; /home/sdcc-builder/build/sdcc-build/orig/sdcc/src/pic14/gen.c:2316:resultRemat *{*
                      02672 ;;; /home/sdcc-builder/build/sdcc-build/orig/sdcc/src/pic14/gen.c:2778:genGoto *{*
                      02673 ;; >>> /home/sdcc-builder/build/sdcc-build/orig/sdcc/src/pic14/gen.c:2780:genGoto
                      02674 ;; ***  popGetLabel  key=7, label offset 132
                      02675         .line   142; "gpio.c"   break;
02AE   2???           02676         GOTO    _00239_DS_
                      02677 ;;; /home/sdcc-builder/build/sdcc-build/orig/sdcc/src/pic14/gen.c:2316:resultRemat *{*
                      02678 ;;; /home/sdcc-builder/build/sdcc-build/orig/sdcc/src/pic14/gen.c:2760:genLabel *{*
                      02679 ;; ***  genLabel  2763
                      02680 ;;; /home/sdcc-builder/build/sdcc-build/orig/sdcc/src/pic14/gen.c:2316:resultRemat *{*
                      02681 ;;; /home/sdcc-builder/build/sdcc-build/orig/sdcc/src/pic14/gen.c:6927:genAssign *{*
                      02682 ;; ***  genAssign  6928
                      02683 ;; ***  aopForSym 315
gpasm-1.4.0 #1106 (Oct  6 2014) obj\Debug\gpi   8-17-2021  02:09:23         PAGE 52


LOC    OBJECT CODE    LINE  SOURCE TEXT
  VALUE

                      02684 ;;      327 sym->rname = _PORTD, size = 1
                      02685 ;;      694 register type nRegs=1
                      02686 ;;      line = 6937 result AOP_REG=r0x105D, size=1, left -=-, size=0, right AOP_DIR=_PORTD, size=1
                      02687 ;; ***  genAssign  7007
                      02688 ;; WARNING      genAssign  7016 ignoring register storage
                      02689 ;; ***  genAssign  7023
                      02690 ;;; /home/sdcc-builder/build/sdcc-build/orig/sdcc/src/pic14/gen.c:1343:mov2w_op *{*
                      02691 ;; ***  mov2w  1381  offset=0
                      02692 ;; >>> /home/sdcc-builder/build/sdcc-build/orig/sdcc/src/pic14/gen.c:1386:mov2w
                      02693 ;;      1009
                      02694 ;;      1028  _PORTD   offset=0
02AF                  02695 _00236_DS_
                      02696         .line   144; "gpio.c"   ret=  ReadRegisterValue(DATA_REGISTER_READ_PORTD) ;
02AF   ???? ????      02697         BANKSEL _PORTD
02B1   08??           02698         MOVF    _PORTD,W
                      02699 ;; >>> /home/sdcc-builder/build/sdcc-build/orig/sdcc/src/pic14/gen.c:7050:genAssign
                      02700 ;;      1109 rIdx = r0x105D 
02B2   ???? ????      02701         BANKSEL r0x100F
02B4   00??           02702         MOVWF   r0x100F
                      02703 ;;; /home/sdcc-builder/build/sdcc-build/orig/sdcc/src/pic14/gen.c:2316:resultRemat *{*
                      02704 ;;; /home/sdcc-builder/build/sdcc-build/orig/sdcc/src/pic14/gen.c:2778:genGoto *{*
                      02705 ;; >>> /home/sdcc-builder/build/sdcc-build/orig/sdcc/src/pic14/gen.c:2780:genGoto
                      02706 ;; ***  popGetLabel  key=7, label offset 132
                      02707         .line   145; "gpio.c"   break;
02B5   2???           02708         GOTO    _00239_DS_
                      02709 ;;; /home/sdcc-builder/build/sdcc-build/orig/sdcc/src/pic14/gen.c:2316:resultRemat *{*
                      02710 ;;; /home/sdcc-builder/build/sdcc-build/orig/sdcc/src/pic14/gen.c:2760:genLabel *{*
                      02711 ;; ***  genLabel  2763
                      02712 ;;; /home/sdcc-builder/build/sdcc-build/orig/sdcc/src/pic14/gen.c:2316:resultRemat *{*
                      02713 ;;; /home/sdcc-builder/build/sdcc-build/orig/sdcc/src/pic14/gen.c:6927:genAssign *{*
                      02714 ;; ***  genAssign  6928
                      02715 ;; ***  aopForSym 315
                      02716 ;;      327 sym->rname = _PORTE, size = 1
                      02717 ;;      694 register type nRegs=1
                      02718 ;;      line = 6937 result AOP_REG=r0x105D, size=1, left -=-, size=0, right AOP_DIR=_PORTE, size=1
                      02719 ;; ***  genAssign  7007
                      02720 ;; WARNING      genAssign  7016 ignoring register storage
                      02721 ;; ***  genAssign  7023
                      02722 ;;; /home/sdcc-builder/build/sdcc-build/orig/sdcc/src/pic14/gen.c:1343:mov2w_op *{*
                      02723 ;; ***  mov2w  1381  offset=0
                      02724 ;; >>> /home/sdcc-builder/build/sdcc-build/orig/sdcc/src/pic14/gen.c:1386:mov2w
                      02725 ;;      1009
                      02726 ;;      1028  _PORTE   offset=0
02B6                  02727 _00237_DS_
                      02728         .line   147; "gpio.c"   ret=  ReadRegisterValue(DATA_REGISTER_READ_PORTE) ;
02B6   ???? ????      02729         BANKSEL _PORTE
02B8   08??           02730         MOVF    _PORTE,W
                      02731 ;; >>> /home/sdcc-builder/build/sdcc-build/orig/sdcc/src/pic14/gen.c:7050:genAssign
                      02732 ;;      1109 rIdx = r0x105D 
02B9   ???? ????      02733         BANKSEL r0x100F
02BB   00??           02734         MOVWF   r0x100F
                      02735 ;;; /home/sdcc-builder/build/sdcc-build/orig/sdcc/src/pic14/gen.c:2316:resultRemat *{*
                      02736 ;;; /home/sdcc-builder/build/sdcc-build/orig/sdcc/src/pic14/gen.c:2760:genLabel *{*
gpasm-1.4.0 #1106 (Oct  6 2014) obj\Debug\gpi   8-17-2021  02:09:23         PAGE 53


LOC    OBJECT CODE    LINE  SOURCE TEXT
  VALUE

                      02737 ;; ***  genLabel  2763
                      02738 ;;; /home/sdcc-builder/build/sdcc-build/orig/sdcc/src/pic14/gen.c:2316:resultRemat *{*
                      02739 ;;; /home/sdcc-builder/build/sdcc-build/orig/sdcc/src/pic14/gen.c:2683:genRet *{*
                      02740 ;; ***  genRet  2685
                      02741 ;;      694 register type nRegs=1
                      02742 ;;; /home/sdcc-builder/build/sdcc-build/orig/sdcc/src/pic14/gen.c:1343:mov2w_op *{*
                      02743 ;; ***  mov2w  1381  offset=0
                      02744 ;; >>> /home/sdcc-builder/build/sdcc-build/orig/sdcc/src/pic14/gen.c:1386:mov2w
                      02745 ;;      1109 rIdx = r0x105D 
02BC                  02746 _00239_DS_
                      02747         .line   153; "gpio.c"   return ret ;
02BC   ???? ????      02748         BANKSEL r0x100F
02BE   08??           02749         MOVF    r0x100F,W
                      02750 ;;; /home/sdcc-builder/build/sdcc-build/orig/sdcc/src/pic14/gen.c:2316:resultRemat *{*
                      02751 ;;; /home/sdcc-builder/build/sdcc-build/orig/sdcc/src/pic14/gen.c:2760:genLabel *{*
                      02752 ;; ***  genLabel  2763
                      02753 ;;; /home/sdcc-builder/build/sdcc-build/orig/sdcc/src/pic14/gen.c:2316:resultRemat *{*
                      02754 ;;; /home/sdcc-builder/build/sdcc-build/orig/sdcc/src/pic14/gen.c:2528:genEndFunction *{*
                      02755 ;; ***  genEndFunction  2530
02BF   0008           02756         RETURN  
                      02757 ; exit point of _GPIO_GetPortState
                      02758 ;;; /home/sdcc-builder/build/sdcc-build/orig/sdcc/src/pic14/gen.c:7426:genpic14Code *{*
                      02759 
                      02760 ;***
                      02761 ;  pBlock Stats: dbName = C
                      02762 ;***
                      02763 ;entry:  _GPIO_SetPinDirection  ;Function start
                      02764 ; 2 exit points
                      02765 ;has an exit
                      02766 ;6 compiler assigned registers:
                      02767 ;   r0x1010
                      02768 ;   STK00
                      02769 ;   r0x1011
                      02770 ;   STK01
                      02771 ;   r0x1012
                      02772 ;   r0x1013
                      02773 ;; Starting pCode block
                      02774 ;;; /home/sdcc-builder/build/sdcc-build/orig/sdcc/src/pic14/gen.c:2316:resultRemat *{*
                      02775 ;;; /home/sdcc-builder/build/sdcc-build/orig/sdcc/src/pic14/gen.c:2760:genLabel *{*
                      02776 ;; ***  genLabel  2763
                      02777 ;;; /home/sdcc-builder/build/sdcc-build/orig/sdcc/src/pic14/gen.c:2316:resultRemat *{*
                      02778 ;;; /home/sdcc-builder/build/sdcc-build/orig/sdcc/src/pic14/gen.c:2340:genFunction *{*
                      02779 ;; ***  genFunction  2342 curr label offset=56previous max_key=34 
02C0                  02780 _GPIO_SetPinDirection   ;Function start
                      02781 ; 2 exit points
                      02782 ;;; /home/sdcc-builder/build/sdcc-build/orig/sdcc/src/pic14/gen.c:2316:resultRemat *{*
                      02783 ;;; /home/sdcc-builder/build/sdcc-build/orig/sdcc/src/pic14/gen.c:7358:genReceive *{*
                      02784 ;; ***  genReceive  7359
                      02785 ;;      694 register type nRegs=1
                      02786 ;;; /home/sdcc-builder/build/sdcc-build/orig/sdcc/src/pic14/gen.c:1907:assignResultValue *{*
                      02787 ;; ***  assignResultValue  1909
                      02788 ;;      line = 1911 result -=-, size=0, left AOP_REG=r0x1058, size=1, right -=-, size=0
                      02789 ;; >>> /home/sdcc-builder/build/sdcc-build/orig/sdcc/src/pic14/gen.c:1393:movwf
gpasm-1.4.0 #1106 (Oct  6 2014) obj\Debug\gpi   8-17-2021  02:09:23         PAGE 54


LOC    OBJECT CODE    LINE  SOURCE TEXT
  VALUE

                      02790 ;;      1109 rIdx = r0x1058 
                      02791         .line   105; "gpio.c"   void GPIO_SetPinDirection(tPORT port, tPIN pin ,tPIN_DIRECTION direction
                            )
02C0   ???? ????      02792         BANKSEL r0x1010
02C2   00??           02793         MOVWF   r0x1010
                      02794 ;;; /home/sdcc-builder/build/sdcc-build/orig/sdcc/src/pic14/gen.c:2316:resultRemat *{*
                      02795 ;;; /home/sdcc-builder/build/sdcc-build/orig/sdcc/src/pic14/gen.c:7358:genReceive *{*
                      02796 ;; ***  genReceive  7359
                      02797 ;;      694 register type nRegs=1
                      02798 ;;; /home/sdcc-builder/build/sdcc-build/orig/sdcc/src/pic14/gen.c:1907:assignResultValue *{*
                      02799 ;; ***  assignResultValue  1909
                      02800 ;;      line = 1911 result -=-, size=0, left AOP_REG=r0x1059, size=1, right -=-, size=0
                      02801 ;; >>> /home/sdcc-builder/build/sdcc-build/orig/sdcc/src/pic14/gen.c:1423:get_returnvalue
                      02802 ;; ***  popRegFromIdx,1042  , rIdx=0x7f
02C3   08??           02803         MOVF    STK00,W
                      02804 ;; >>> /home/sdcc-builder/build/sdcc-build/orig/sdcc/src/pic14/gen.c:1393:movwf
                      02805 ;;      1109 rIdx = r0x1059 
02C4   00??           02806         MOVWF   r0x1011
                      02807 ;;; /home/sdcc-builder/build/sdcc-build/orig/sdcc/src/pic14/gen.c:2316:resultRemat *{*
                      02808 ;;; /home/sdcc-builder/build/sdcc-build/orig/sdcc/src/pic14/gen.c:7358:genReceive *{*
                      02809 ;; ***  genReceive  7359
                      02810 ;;      694 register type nRegs=1
                      02811 ;;; /home/sdcc-builder/build/sdcc-build/orig/sdcc/src/pic14/gen.c:1907:assignResultValue *{*
                      02812 ;; ***  assignResultValue  1909
                      02813 ;;      line = 1911 result -=-, size=0, left AOP_REG=r0x105A, size=1, right -=-, size=0
                      02814 ;; >>> /home/sdcc-builder/build/sdcc-build/orig/sdcc/src/pic14/gen.c:1423:get_returnvalue
                      02815 ;; ***  popRegFromIdx,1042  , rIdx=0x7e
02C5   08??           02816         MOVF    STK01,W
                      02817 ;; >>> /home/sdcc-builder/build/sdcc-build/orig/sdcc/src/pic14/gen.c:1393:movwf
                      02818 ;;      1109 rIdx = r0x105A 
02C6   00??           02819         MOVWF   r0x1012
                      02820 ;;; /home/sdcc-builder/build/sdcc-build/orig/sdcc/src/pic14/gen.c:2316:resultRemat *{*
                      02821 ;;; /home/sdcc-builder/build/sdcc-build/orig/sdcc/src/pic14/gen.c:3547:genCmpGt *{*
                      02822 ;; ***  genCmpGt  3548
                      02823 ;;      694 register type nRegs=1
                      02824 ;;; /home/sdcc-builder/build/sdcc-build/orig/sdcc/src/pic14/gen.c:3294:genCmp *{*
                      02825 ;;swapping arguments (AOP_TYPEs 1/2)
                      02826 ;;unsigned compare: left >= lit(0x5=5), size=1
                      02827 ;; >>> /home/sdcc-builder/build/sdcc-build/orig/sdcc/src/pic14/gen.c:3265:pic14_mov2w_regOrLit
                      02828         .line   107; "gpio.c"   switch(port)
02C7   3005           02829         MOVLW   0x05
                      02830 ;; >>> /home/sdcc-builder/build/sdcc-build/orig/sdcc/src/pic14/gen.c:3432:genCmp
                      02831 ;;      1109 rIdx = r0x1058 
02C8   02??           02832         SUBWF   r0x1010,W
                      02833 ;;; /home/sdcc-builder/build/sdcc-build/orig/sdcc/src/pic14/gen.c:3237:genSkipc *{*
                      02834 ;; >>> /home/sdcc-builder/build/sdcc-build/orig/sdcc/src/pic14/gen.c:3242:genSkipc
02C9   1803           02835         BTFSC   STATUS,0
                      02836 ;; >>> /home/sdcc-builder/build/sdcc-build/orig/sdcc/src/pic14/gen.c:3246:genSkipc
                      02837 ;; ***  popGetLabel  key=8, label offset 94
02CA   2???           02838         GOTO    _00202_DS_
                      02839 ;;genSkipc:3247: created from rifx:027A5DF4
                      02840 ;;; /home/sdcc-builder/build/sdcc-build/orig/sdcc/src/pic14/gen.c:2316:resultRemat *{*
                      02841 ;;; /home/sdcc-builder/build/sdcc-build/orig/sdcc/src/pic14/gen.c:2316:resultRemat *{*
gpasm-1.4.0 #1106 (Oct  6 2014) obj\Debug\gpi   8-17-2021  02:09:23         PAGE 55


LOC    OBJECT CODE    LINE  SOURCE TEXT
  VALUE

                      02842 ;;; /home/sdcc-builder/build/sdcc-build/orig/sdcc/src/pic14/gen.c:7071:genJumpTab *{*
                      02843 ;; ***  genJumpTab  7072
                      02844 ;;      694 register type nRegs=1
                      02845 ;; >>> /home/sdcc-builder/build/sdcc-build/orig/sdcc/src/pic14/gen.c:7087:genJumpTab
                      02846 ;; ***  popGetLabel  key=14, label offset 94
02CB   30??           02847         MOVLW   HIGH(_00208_DS_)
                      02848 ;; >>> /home/sdcc-builder/build/sdcc-build/orig/sdcc/src/pic14/gen.c:7088:genJumpTab
02CC   1283 1303      02849         BANKSEL PCLATH
02CE   008A           02850         MOVWF   PCLATH
                      02851 ;; >>> /home/sdcc-builder/build/sdcc-build/orig/sdcc/src/pic14/gen.c:7089:genJumpTab
                      02852 ;; ***  popGetLabel  key=14, label offset 94
02CF   30??           02853         MOVLW   _00208_DS_
                      02854 ;; >>> /home/sdcc-builder/build/sdcc-build/orig/sdcc/src/pic14/gen.c:7090:genJumpTab
                      02855 ;;      1109 rIdx = r0x1058 
02D0   ???? ????      02856         BANKSEL r0x1010
02D2   07??           02857         ADDWF   r0x1010,W
                      02858 ;; >>> /home/sdcc-builder/build/sdcc-build/orig/sdcc/src/pic14/gen.c:7091:genJumpTab
02D3   1C03           02859         BTFSS   STATUS,0
02D4   2???           02860         GOTO    _00005_DS_
                      02861 ;; >>> /home/sdcc-builder/build/sdcc-build/orig/sdcc/src/pic14/gen.c:7092:genJumpTab
02D5   1283 1303      02862         BANKSEL PCLATH
02D7   0A8A           02863         INCF    PCLATH,F
                      02864 ;; >>> /home/sdcc-builder/build/sdcc-build/orig/sdcc/src/pic14/gen.c:7093:genJumpTab
02D8                  02865 _00005_DS_
02D8   0082           02866         MOVWF   PCL
                      02867 ;; >>> /home/sdcc-builder/build/sdcc-build/orig/sdcc/src/pic14/gen.c:7102:genJumpTab
                      02868 ;; ***  popGetLabel  key=1, label offset 94
02D9                  02869 _00208_DS_
02D9   2???           02870         GOTO    _00195_DS_
                      02871 ;; >>> /home/sdcc-builder/build/sdcc-build/orig/sdcc/src/pic14/gen.c:7102:genJumpTab
                      02872 ;; ***  popGetLabel  key=2, label offset 94
02DA   2???           02873         GOTO    _00196_DS_
                      02874 ;; >>> /home/sdcc-builder/build/sdcc-build/orig/sdcc/src/pic14/gen.c:7102:genJumpTab
                      02875 ;; ***  popGetLabel  key=3, label offset 94
02DB   2???           02876         GOTO    _00197_DS_
                      02877 ;; >>> /home/sdcc-builder/build/sdcc-build/orig/sdcc/src/pic14/gen.c:7102:genJumpTab
                      02878 ;; ***  popGetLabel  key=4, label offset 94
02DC   2???           02879         GOTO    _00198_DS_
                      02880 ;; >>> /home/sdcc-builder/build/sdcc-build/orig/sdcc/src/pic14/gen.c:7102:genJumpTab
                      02881 ;; ***  popGetLabel  key=5, label offset 94
02DD   2???           02882         GOTO    _00199_DS_
                      02883 ;;; /home/sdcc-builder/build/sdcc-build/orig/sdcc/src/pic14/gen.c:2316:resultRemat *{*
                      02884 ;;; /home/sdcc-builder/build/sdcc-build/orig/sdcc/src/pic14/gen.c:2760:genLabel *{*
                      02885 ;; ***  genLabel  2763
                      02886 ;;; /home/sdcc-builder/build/sdcc-build/orig/sdcc/src/pic14/gen.c:2316:resultRemat *{*
                      02887 ;;; /home/sdcc-builder/build/sdcc-build/orig/sdcc/src/pic14/gen.c:5418:genGenericShift *{*
                      02888 ;; ***  genGenericShift  5421
                      02889 ;;      694 register type nRegs=1
                      02890 ;;      694 register type nRegs=1
                      02891 ;; ***  mov2w  1381  offset=0
                      02892 ;; >>> /home/sdcc-builder/build/sdcc-build/orig/sdcc/src/pic14/gen.c:1384:mov2w
02DE                  02893 _00195_DS_
                      02894         .line   110; "gpio.c"   SetRegisterPin(DIRECTION_REGISTER_PORTA,pin,direction) ;
gpasm-1.4.0 #1106 (Oct  6 2014) obj\Debug\gpi   8-17-2021  02:09:23         PAGE 56


LOC    OBJECT CODE    LINE  SOURCE TEXT
  VALUE

02DE   3001           02895         MOVLW   0x01
                      02896 ;; >>> /home/sdcc-builder/build/sdcc-build/orig/sdcc/src/pic14/gen.c:1393:movwf
                      02897 ;;      1109 rIdx = r0x1058 
02DF   ???? ????      02898         BANKSEL r0x1010
02E1   00??           02899         MOVWF   r0x1010
                      02900 ;; ***  addSign  861
                      02901 ;;; /home/sdcc-builder/build/sdcc-build/orig/sdcc/src/pic14/genarith.c:862:addSign *{*
                      02902 ;; ***  mov2w  1381  offset=0
                      02903 ;; >>> /home/sdcc-builder/build/sdcc-build/orig/sdcc/src/pic14/gen.c:1386:mov2w
                      02904 ;;      1109 rIdx = r0x1059 
02E2   08??           02905         MOVF    r0x1011,W
                      02906 ;; >>> /home/sdcc-builder/build/sdcc-build/orig/sdcc/src/pic14/gen.c:5492:genGenericShift
02E3   3C00           02907         SUBLW   0x00
                      02908 ;; >>> /home/sdcc-builder/build/sdcc-build/orig/sdcc/src/pic14/gen.c:5494:genGenericShift
02E4   1903           02909         BTFSC   STATUS,2
                      02910 ;; >>> /home/sdcc-builder/build/sdcc-build/orig/sdcc/src/pic14/gen.c:5495:genGenericShift
                      02911 ;; ***  popGetLabel  key=16, label offset 94
02E5   2???           02912         GOTO    _00210_DS_
                      02913 ;;; /home/sdcc-builder/build/sdcc-build/orig/sdcc/src/pic14/gen.c:5369:genMultiAsm *{*
                      02914 ;; ***  genMultiAsm  5370
                      02915 ;; >>> /home/sdcc-builder/build/sdcc-build/orig/sdcc/src/pic14/gen.c:5387:genMultiAsm
                      02916 ;;      1109 rIdx = r0x1058 
02E6                  02917 _00209_DS_
02E6   ???? ????      02918         BANKSEL r0x1010
02E8   0D??           02919         RLF     r0x1010,F
                      02920 ;; >>> /home/sdcc-builder/build/sdcc-build/orig/sdcc/src/pic14/gen.c:5501:genGenericShift
02E9   3E01           02921         ADDLW   0x01
                      02922 ;; >>> /home/sdcc-builder/build/sdcc-build/orig/sdcc/src/pic14/gen.c:5502:genGenericShift
02EA   1C03           02923         BTFSS   STATUS,0
                      02924 ;; >>> /home/sdcc-builder/build/sdcc-build/orig/sdcc/src/pic14/gen.c:5503:genGenericShift
                      02925 ;; ***  popGetLabel  key=15, label offset 94
02EB   2???           02926         GOTO    _00209_DS_
                      02927 ;;; /home/sdcc-builder/build/sdcc-build/orig/sdcc/src/pic14/gen.c:2316:resultRemat *{*
                      02928 ;;; /home/sdcc-builder/build/sdcc-build/orig/sdcc/src/pic14/gen.c:1609:genCpl *{*
                      02929 ;; ***  genCpl  1611
                      02930 ;;      694 register type nRegs=1
                      02931 ;;      694 register type nRegs=1
                      02932 ;; >>> /home/sdcc-builder/build/sdcc-build/orig/sdcc/src/pic14/gen.c:1631:genCpl
                      02933 ;;      1109 rIdx = r0x1058 
02EC                  02934 _00210_DS_
02EC   ???? ????      02935         BANKSEL r0x1010
02EE   09??           02936         COMF    r0x1010,F
02EF   ???? ????      02937         BANKSEL _TRISA
02F1   08??           02938         MOVF    _TRISA,W
                      02939 ;; >>> /home/sdcc-builder/build/sdcc-build/orig/sdcc/src/pic14/gen.c:4138:genAnd
                      02940 ;;      1109 rIdx = r0x1058 
02F2   ???? ????      02941         BANKSEL r0x1010
02F4   05??           02942         ANDWF   r0x1010,F
                      02943 ;;; /home/sdcc-builder/build/sdcc-build/orig/sdcc/src/pic14/gen.c:2316:resultRemat *{*
                      02944 ;;; /home/sdcc-builder/build/sdcc-build/orig/sdcc/src/pic14/gen.c:5418:genGenericShift *{*
                      02945 ;; ***  genGenericShift  5421
                      02946 ;;      694 register type nRegs=1
                      02947 ;;      694 register type nRegs=1
gpasm-1.4.0 #1106 (Oct  6 2014) obj\Debug\gpi   8-17-2021  02:09:23         PAGE 57


LOC    OBJECT CODE    LINE  SOURCE TEXT
  VALUE

                      02948 ;;      694 register type nRegs=1
                      02949 ;; ***  mov2w  1381  offset=0
                      02950 ;; >>> /home/sdcc-builder/build/sdcc-build/orig/sdcc/src/pic14/gen.c:1386:mov2w
                      02951 ;;      1109 rIdx = r0x105A 
02F5   08??           02952         MOVF    r0x1012,W
                      02953 ;; >>> /home/sdcc-builder/build/sdcc-build/orig/sdcc/src/pic14/gen.c:1393:movwf
                      02954 ;;      1109 rIdx = r0x105B 
02F6   00??           02955         MOVWF   r0x1013
                      02956 ;; ***  addSign  861
                      02957 ;;; /home/sdcc-builder/build/sdcc-build/orig/sdcc/src/pic14/genarith.c:862:addSign *{*
                      02958 ;; ***  mov2w  1381  offset=0
                      02959 ;; >>> /home/sdcc-builder/build/sdcc-build/orig/sdcc/src/pic14/gen.c:1386:mov2w
                      02960 ;;      1109 rIdx = r0x1059 
02F7   08??           02961         MOVF    r0x1011,W
                      02962 ;; >>> /home/sdcc-builder/build/sdcc-build/orig/sdcc/src/pic14/gen.c:5492:genGenericShift
02F8   3C00           02963         SUBLW   0x00
                      02964 ;; >>> /home/sdcc-builder/build/sdcc-build/orig/sdcc/src/pic14/gen.c:5494:genGenericShift
02F9   1903           02965         BTFSC   STATUS,2
                      02966 ;; >>> /home/sdcc-builder/build/sdcc-build/orig/sdcc/src/pic14/gen.c:5495:genGenericShift
                      02967 ;; ***  popGetLabel  key=18, label offset 94
02FA   2???           02968         GOTO    _00212_DS_
                      02969 ;;; /home/sdcc-builder/build/sdcc-build/orig/sdcc/src/pic14/gen.c:5369:genMultiAsm *{*
                      02970 ;; ***  genMultiAsm  5370
                      02971 ;; >>> /home/sdcc-builder/build/sdcc-build/orig/sdcc/src/pic14/gen.c:5387:genMultiAsm
                      02972 ;;      1109 rIdx = r0x105B 
02FB                  02973 _00211_DS_
02FB   ???? ????      02974         BANKSEL r0x1013
02FD   0D??           02975         RLF     r0x1013,F
                      02976 ;; >>> /home/sdcc-builder/build/sdcc-build/orig/sdcc/src/pic14/gen.c:5501:genGenericShift
02FE   3E01           02977         ADDLW   0x01
                      02978 ;; >>> /home/sdcc-builder/build/sdcc-build/orig/sdcc/src/pic14/gen.c:5502:genGenericShift
02FF   1C03           02979         BTFSS   STATUS,0
                      02980 ;; >>> /home/sdcc-builder/build/sdcc-build/orig/sdcc/src/pic14/gen.c:5503:genGenericShift
                      02981 ;; ***  popGetLabel  key=17, label offset 94
0300   2???           02982         GOTO    _00211_DS_
                      02983 ;;; /home/sdcc-builder/build/sdcc-build/orig/sdcc/src/pic14/gen.c:2316:resultRemat *{*
                      02984 ;;; /home/sdcc-builder/build/sdcc-build/orig/sdcc/src/pic14/gen.c:4220:genOr *{*
                      02985 ;; ***  genOr  4221
                      02986 ;;      694 register type nRegs=1
                      02987 ;;      694 register type nRegs=1
                      02988 ;; ***  aopForSym 315
                      02989 ;;      327 sym->rname = _TRISA, size = 1
                      02990 ;;      line = 4227 result AOP_DIR=_TRISA, size=1, left AOP_REG=r0x1058, size=1, right AOP_REG=r0x105B, 
                            size=1
                      02991 ;;      line = 4253 result AOP_DIR=_TRISA, size=1, left AOP_REG=r0x1058, size=1, right AOP_REG=r0x105B, 
                            size=1
                      02992 ;; >>> /home/sdcc-builder/build/sdcc-build/orig/sdcc/src/pic14/gen.c:4479:genOr
                      02993 ;;      1109 rIdx = r0x105B 
0301                  02994 _00212_DS_
0301   ???? ????      02995         BANKSEL r0x1013
0303   08??           02996         MOVF    r0x1013,W
                      02997 ;; >>> /home/sdcc-builder/build/sdcc-build/orig/sdcc/src/pic14/gen.c:4480:genOr
                      02998 ;;      1109 rIdx = r0x1058 
gpasm-1.4.0 #1106 (Oct  6 2014) obj\Debug\gpi   8-17-2021  02:09:23         PAGE 58


LOC    OBJECT CODE    LINE  SOURCE TEXT
  VALUE

0304   04??           02999         IORWF   r0x1010,W
                      03000 ;; >>> /home/sdcc-builder/build/sdcc-build/orig/sdcc/src/pic14/gen.c:4481:genOr
                      03001 ;;      1009
                      03002 ;;      1028  _TRISA   offset=0
0305   ???? ????      03003         BANKSEL _TRISA
0307   00??           03004         MOVWF   _TRISA
                      03005 ;;; /home/sdcc-builder/build/sdcc-build/orig/sdcc/src/pic14/gen.c:2316:resultRemat *{*
                      03006 ;;; /home/sdcc-builder/build/sdcc-build/orig/sdcc/src/pic14/gen.c:2778:genGoto *{*
                      03007 ;; >>> /home/sdcc-builder/build/sdcc-build/orig/sdcc/src/pic14/gen.c:2780:genGoto
                      03008 ;; ***  popGetLabel  key=8, label offset 94
                      03009         .line   111; "gpio.c"   break;
0308   2???           03010         GOTO    _00202_DS_
                      03011 ;;; /home/sdcc-builder/build/sdcc-build/orig/sdcc/src/pic14/gen.c:2316:resultRemat *{*
                      03012 ;;; /home/sdcc-builder/build/sdcc-build/orig/sdcc/src/pic14/gen.c:2760:genLabel *{*
                      03013 ;; ***  genLabel  2763
                      03014 ;;; /home/sdcc-builder/build/sdcc-build/orig/sdcc/src/pic14/gen.c:2316:resultRemat *{*
                      03015 ;;; /home/sdcc-builder/build/sdcc-build/orig/sdcc/src/pic14/gen.c:5418:genGenericShift *{*
                      03016 ;; ***  genGenericShift  5421
                      03017 ;;      694 register type nRegs=1
                      03018 ;;      694 register type nRegs=1
                      03019 ;; ***  mov2w  1381  offset=0
                      03020 ;; >>> /home/sdcc-builder/build/sdcc-build/orig/sdcc/src/pic14/gen.c:1384:mov2w
0309                  03021 _00196_DS_
                      03022         .line   113; "gpio.c"   SetRegisterPin(DIRECTION_REGISTER_PORTB,pin,direction) ;
0309   3001           03023         MOVLW   0x01
                      03024 ;; >>> /home/sdcc-builder/build/sdcc-build/orig/sdcc/src/pic14/gen.c:1393:movwf
                      03025 ;;      1109 rIdx = r0x1058 
030A   ???? ????      03026         BANKSEL r0x1010
030C   00??           03027         MOVWF   r0x1010
                      03028 ;; ***  addSign  861
                      03029 ;;; /home/sdcc-builder/build/sdcc-build/orig/sdcc/src/pic14/genarith.c:862:addSign *{*
                      03030 ;; ***  mov2w  1381  offset=0
                      03031 ;; >>> /home/sdcc-builder/build/sdcc-build/orig/sdcc/src/pic14/gen.c:1386:mov2w
                      03032 ;;      1109 rIdx = r0x1059 
030D   08??           03033         MOVF    r0x1011,W
                      03034 ;; >>> /home/sdcc-builder/build/sdcc-build/orig/sdcc/src/pic14/gen.c:5492:genGenericShift
030E   3C00           03035         SUBLW   0x00
                      03036 ;; >>> /home/sdcc-builder/build/sdcc-build/orig/sdcc/src/pic14/gen.c:5494:genGenericShift
030F   1903           03037         BTFSC   STATUS,2
                      03038 ;; >>> /home/sdcc-builder/build/sdcc-build/orig/sdcc/src/pic14/gen.c:5495:genGenericShift
                      03039 ;; ***  popGetLabel  key=20, label offset 94
0310   2???           03040         GOTO    _00214_DS_
                      03041 ;;; /home/sdcc-builder/build/sdcc-build/orig/sdcc/src/pic14/gen.c:5369:genMultiAsm *{*
                      03042 ;; ***  genMultiAsm  5370
                      03043 ;; >>> /home/sdcc-builder/build/sdcc-build/orig/sdcc/src/pic14/gen.c:5387:genMultiAsm
                      03044 ;;      1109 rIdx = r0x1058 
0311                  03045 _00213_DS_
0311   ???? ????      03046         BANKSEL r0x1010
0313   0D??           03047         RLF     r0x1010,F
                      03048 ;; >>> /home/sdcc-builder/build/sdcc-build/orig/sdcc/src/pic14/gen.c:5501:genGenericShift
0314   3E01           03049         ADDLW   0x01
                      03050 ;; >>> /home/sdcc-builder/build/sdcc-build/orig/sdcc/src/pic14/gen.c:5502:genGenericShift
0315   1C03           03051         BTFSS   STATUS,0
gpasm-1.4.0 #1106 (Oct  6 2014) obj\Debug\gpi   8-17-2021  02:09:23         PAGE 59


LOC    OBJECT CODE    LINE  SOURCE TEXT
  VALUE

                      03052 ;; >>> /home/sdcc-builder/build/sdcc-build/orig/sdcc/src/pic14/gen.c:5503:genGenericShift
                      03053 ;; ***  popGetLabel  key=19, label offset 94
0316   2???           03054         GOTO    _00213_DS_
                      03055 ;;; /home/sdcc-builder/build/sdcc-build/orig/sdcc/src/pic14/gen.c:2316:resultRemat *{*
                      03056 ;;; /home/sdcc-builder/build/sdcc-build/orig/sdcc/src/pic14/gen.c:1609:genCpl *{*
                      03057 ;; ***  genCpl  1611
                      03058 ;;      694 register type nRegs=1
                      03059 ;;      694 register type nRegs=1
                      03060 ;; >>> /home/sdcc-builder/build/sdcc-build/orig/sdcc/src/pic14/gen.c:1631:genCpl
                      03061 ;;      1109 rIdx = r0x1058 
0317                  03062 _00214_DS_
0317   ???? ????      03063         BANKSEL r0x1010
0319   09??           03064         COMF    r0x1010,F
031A   ???? ????      03065         BANKSEL _TRISB
031C   08??           03066         MOVF    _TRISB,W
                      03067 ;; >>> /home/sdcc-builder/build/sdcc-build/orig/sdcc/src/pic14/gen.c:4138:genAnd
                      03068 ;;      1109 rIdx = r0x1058 
031D   ???? ????      03069         BANKSEL r0x1010
031F   05??           03070         ANDWF   r0x1010,F
                      03071 ;;; /home/sdcc-builder/build/sdcc-build/orig/sdcc/src/pic14/gen.c:2316:resultRemat *{*
                      03072 ;;; /home/sdcc-builder/build/sdcc-build/orig/sdcc/src/pic14/gen.c:5418:genGenericShift *{*
                      03073 ;; ***  genGenericShift  5421
                      03074 ;;      694 register type nRegs=1
                      03075 ;;      694 register type nRegs=1
                      03076 ;;      694 register type nRegs=1
                      03077 ;; ***  mov2w  1381  offset=0
                      03078 ;; >>> /home/sdcc-builder/build/sdcc-build/orig/sdcc/src/pic14/gen.c:1386:mov2w
                      03079 ;;      1109 rIdx = r0x105A 
0320   08??           03080         MOVF    r0x1012,W
                      03081 ;; >>> /home/sdcc-builder/build/sdcc-build/orig/sdcc/src/pic14/gen.c:1393:movwf
                      03082 ;;      1109 rIdx = r0x105B 
0321   00??           03083         MOVWF   r0x1013
                      03084 ;; ***  addSign  861
                      03085 ;;; /home/sdcc-builder/build/sdcc-build/orig/sdcc/src/pic14/genarith.c:862:addSign *{*
                      03086 ;; ***  mov2w  1381  offset=0
                      03087 ;; >>> /home/sdcc-builder/build/sdcc-build/orig/sdcc/src/pic14/gen.c:1386:mov2w
                      03088 ;;      1109 rIdx = r0x1059 
0322   08??           03089         MOVF    r0x1011,W
                      03090 ;; >>> /home/sdcc-builder/build/sdcc-build/orig/sdcc/src/pic14/gen.c:5492:genGenericShift
0323   3C00           03091         SUBLW   0x00
                      03092 ;; >>> /home/sdcc-builder/build/sdcc-build/orig/sdcc/src/pic14/gen.c:5494:genGenericShift
0324   1903           03093         BTFSC   STATUS,2
                      03094 ;; >>> /home/sdcc-builder/build/sdcc-build/orig/sdcc/src/pic14/gen.c:5495:genGenericShift
                      03095 ;; ***  popGetLabel  key=22, label offset 94
0325   2???           03096         GOTO    _00216_DS_
                      03097 ;;; /home/sdcc-builder/build/sdcc-build/orig/sdcc/src/pic14/gen.c:5369:genMultiAsm *{*
                      03098 ;; ***  genMultiAsm  5370
                      03099 ;; >>> /home/sdcc-builder/build/sdcc-build/orig/sdcc/src/pic14/gen.c:5387:genMultiAsm
                      03100 ;;      1109 rIdx = r0x105B 
0326                  03101 _00215_DS_
0326   ???? ????      03102         BANKSEL r0x1013
0328   0D??           03103         RLF     r0x1013,F
                      03104 ;; >>> /home/sdcc-builder/build/sdcc-build/orig/sdcc/src/pic14/gen.c:5501:genGenericShift
gpasm-1.4.0 #1106 (Oct  6 2014) obj\Debug\gpi   8-17-2021  02:09:23         PAGE 60


LOC    OBJECT CODE    LINE  SOURCE TEXT
  VALUE

0329   3E01           03105         ADDLW   0x01
                      03106 ;; >>> /home/sdcc-builder/build/sdcc-build/orig/sdcc/src/pic14/gen.c:5502:genGenericShift
032A   1C03           03107         BTFSS   STATUS,0
                      03108 ;; >>> /home/sdcc-builder/build/sdcc-build/orig/sdcc/src/pic14/gen.c:5503:genGenericShift
                      03109 ;; ***  popGetLabel  key=21, label offset 94
032B   2???           03110         GOTO    _00215_DS_
                      03111 ;;; /home/sdcc-builder/build/sdcc-build/orig/sdcc/src/pic14/gen.c:2316:resultRemat *{*
                      03112 ;;; /home/sdcc-builder/build/sdcc-build/orig/sdcc/src/pic14/gen.c:4220:genOr *{*
                      03113 ;; ***  genOr  4221
                      03114 ;;      694 register type nRegs=1
                      03115 ;;      694 register type nRegs=1
                      03116 ;; ***  aopForSym 315
                      03117 ;;      327 sym->rname = _TRISB, size = 1
                      03118 ;;      line = 4227 result AOP_DIR=_TRISB, size=1, left AOP_REG=r0x1058, size=1, right AOP_REG=r0x105B, 
                            size=1
                      03119 ;;      line = 4253 result AOP_DIR=_TRISB, size=1, left AOP_REG=r0x1058, size=1, right AOP_REG=r0x105B, 
                            size=1
                      03120 ;; >>> /home/sdcc-builder/build/sdcc-build/orig/sdcc/src/pic14/gen.c:4479:genOr
                      03121 ;;      1109 rIdx = r0x105B 
032C                  03122 _00216_DS_
032C   ???? ????      03123         BANKSEL r0x1013
032E   08??           03124         MOVF    r0x1013,W
                      03125 ;; >>> /home/sdcc-builder/build/sdcc-build/orig/sdcc/src/pic14/gen.c:4480:genOr
                      03126 ;;      1109 rIdx = r0x1058 
032F   04??           03127         IORWF   r0x1010,W
                      03128 ;; >>> /home/sdcc-builder/build/sdcc-build/orig/sdcc/src/pic14/gen.c:4481:genOr
                      03129 ;;      1009
                      03130 ;;      1028  _TRISB   offset=0
0330   ???? ????      03131         BANKSEL _TRISB
0332   00??           03132         MOVWF   _TRISB
                      03133 ;;; /home/sdcc-builder/build/sdcc-build/orig/sdcc/src/pic14/gen.c:2316:resultRemat *{*
                      03134 ;;; /home/sdcc-builder/build/sdcc-build/orig/sdcc/src/pic14/gen.c:2778:genGoto *{*
                      03135 ;; >>> /home/sdcc-builder/build/sdcc-build/orig/sdcc/src/pic14/gen.c:2780:genGoto
                      03136 ;; ***  popGetLabel  key=8, label offset 94
                      03137         .line   114; "gpio.c"   break;
0333   2???           03138         GOTO    _00202_DS_
                      03139 ;;; /home/sdcc-builder/build/sdcc-build/orig/sdcc/src/pic14/gen.c:2316:resultRemat *{*
                      03140 ;;; /home/sdcc-builder/build/sdcc-build/orig/sdcc/src/pic14/gen.c:2760:genLabel *{*
                      03141 ;; ***  genLabel  2763
                      03142 ;;; /home/sdcc-builder/build/sdcc-build/orig/sdcc/src/pic14/gen.c:2316:resultRemat *{*
                      03143 ;;; /home/sdcc-builder/build/sdcc-build/orig/sdcc/src/pic14/gen.c:5418:genGenericShift *{*
                      03144 ;; ***  genGenericShift  5421
                      03145 ;;      694 register type nRegs=1
                      03146 ;;      694 register type nRegs=1
                      03147 ;; ***  mov2w  1381  offset=0
                      03148 ;; >>> /home/sdcc-builder/build/sdcc-build/orig/sdcc/src/pic14/gen.c:1384:mov2w
0334                  03149 _00197_DS_
                      03150         .line   116; "gpio.c"   SetRegisterPin(DIRECTION_REGISTER_PORTC,pin,direction) ;
0334   3001           03151         MOVLW   0x01
                      03152 ;; >>> /home/sdcc-builder/build/sdcc-build/orig/sdcc/src/pic14/gen.c:1393:movwf
                      03153 ;;      1109 rIdx = r0x1058 
0335   ???? ????      03154         BANKSEL r0x1010
0337   00??           03155         MOVWF   r0x1010
gpasm-1.4.0 #1106 (Oct  6 2014) obj\Debug\gpi   8-17-2021  02:09:23         PAGE 61


LOC    OBJECT CODE    LINE  SOURCE TEXT
  VALUE

                      03156 ;; ***  addSign  861
                      03157 ;;; /home/sdcc-builder/build/sdcc-build/orig/sdcc/src/pic14/genarith.c:862:addSign *{*
                      03158 ;; ***  mov2w  1381  offset=0
                      03159 ;; >>> /home/sdcc-builder/build/sdcc-build/orig/sdcc/src/pic14/gen.c:1386:mov2w
                      03160 ;;      1109 rIdx = r0x1059 
0338   08??           03161         MOVF    r0x1011,W
                      03162 ;; >>> /home/sdcc-builder/build/sdcc-build/orig/sdcc/src/pic14/gen.c:5492:genGenericShift
0339   3C00           03163         SUBLW   0x00
                      03164 ;; >>> /home/sdcc-builder/build/sdcc-build/orig/sdcc/src/pic14/gen.c:5494:genGenericShift
033A   1903           03165         BTFSC   STATUS,2
                      03166 ;; >>> /home/sdcc-builder/build/sdcc-build/orig/sdcc/src/pic14/gen.c:5495:genGenericShift
                      03167 ;; ***  popGetLabel  key=24, label offset 94
033B   2???           03168         GOTO    _00218_DS_
                      03169 ;;; /home/sdcc-builder/build/sdcc-build/orig/sdcc/src/pic14/gen.c:5369:genMultiAsm *{*
                      03170 ;; ***  genMultiAsm  5370
                      03171 ;; >>> /home/sdcc-builder/build/sdcc-build/orig/sdcc/src/pic14/gen.c:5387:genMultiAsm
                      03172 ;;      1109 rIdx = r0x1058 
033C                  03173 _00217_DS_
033C   ???? ????      03174         BANKSEL r0x1010
033E   0D??           03175         RLF     r0x1010,F
                      03176 ;; >>> /home/sdcc-builder/build/sdcc-build/orig/sdcc/src/pic14/gen.c:5501:genGenericShift
033F   3E01           03177         ADDLW   0x01
                      03178 ;; >>> /home/sdcc-builder/build/sdcc-build/orig/sdcc/src/pic14/gen.c:5502:genGenericShift
0340   1C03           03179         BTFSS   STATUS,0
                      03180 ;; >>> /home/sdcc-builder/build/sdcc-build/orig/sdcc/src/pic14/gen.c:5503:genGenericShift
                      03181 ;; ***  popGetLabel  key=23, label offset 94
0341   2???           03182         GOTO    _00217_DS_
                      03183 ;;; /home/sdcc-builder/build/sdcc-build/orig/sdcc/src/pic14/gen.c:2316:resultRemat *{*
                      03184 ;;; /home/sdcc-builder/build/sdcc-build/orig/sdcc/src/pic14/gen.c:1609:genCpl *{*
                      03185 ;; ***  genCpl  1611
                      03186 ;;      694 register type nRegs=1
                      03187 ;;      694 register type nRegs=1
                      03188 ;; >>> /home/sdcc-builder/build/sdcc-build/orig/sdcc/src/pic14/gen.c:1631:genCpl
                      03189 ;;      1109 rIdx = r0x1058 
0342                  03190 _00218_DS_
0342   ???? ????      03191         BANKSEL r0x1010
0344   09??           03192         COMF    r0x1010,F
0345   ???? ????      03193         BANKSEL _TRISC
0347   08??           03194         MOVF    _TRISC,W
                      03195 ;; >>> /home/sdcc-builder/build/sdcc-build/orig/sdcc/src/pic14/gen.c:4138:genAnd
                      03196 ;;      1109 rIdx = r0x1058 
0348   ???? ????      03197         BANKSEL r0x1010
034A   05??           03198         ANDWF   r0x1010,F
                      03199 ;;; /home/sdcc-builder/build/sdcc-build/orig/sdcc/src/pic14/gen.c:2316:resultRemat *{*
                      03200 ;;; /home/sdcc-builder/build/sdcc-build/orig/sdcc/src/pic14/gen.c:5418:genGenericShift *{*
                      03201 ;; ***  genGenericShift  5421
                      03202 ;;      694 register type nRegs=1
                      03203 ;;      694 register type nRegs=1
                      03204 ;;      694 register type nRegs=1
                      03205 ;; ***  mov2w  1381  offset=0
                      03206 ;; >>> /home/sdcc-builder/build/sdcc-build/orig/sdcc/src/pic14/gen.c:1386:mov2w
                      03207 ;;      1109 rIdx = r0x105A 
034B   08??           03208         MOVF    r0x1012,W
gpasm-1.4.0 #1106 (Oct  6 2014) obj\Debug\gpi   8-17-2021  02:09:23         PAGE 62


LOC    OBJECT CODE    LINE  SOURCE TEXT
  VALUE

                      03209 ;; >>> /home/sdcc-builder/build/sdcc-build/orig/sdcc/src/pic14/gen.c:1393:movwf
                      03210 ;;      1109 rIdx = r0x105B 
034C   00??           03211         MOVWF   r0x1013
                      03212 ;; ***  addSign  861
                      03213 ;;; /home/sdcc-builder/build/sdcc-build/orig/sdcc/src/pic14/genarith.c:862:addSign *{*
                      03214 ;; ***  mov2w  1381  offset=0
                      03215 ;; >>> /home/sdcc-builder/build/sdcc-build/orig/sdcc/src/pic14/gen.c:1386:mov2w
                      03216 ;;      1109 rIdx = r0x1059 
034D   08??           03217         MOVF    r0x1011,W
                      03218 ;; >>> /home/sdcc-builder/build/sdcc-build/orig/sdcc/src/pic14/gen.c:5492:genGenericShift
034E   3C00           03219         SUBLW   0x00
                      03220 ;; >>> /home/sdcc-builder/build/sdcc-build/orig/sdcc/src/pic14/gen.c:5494:genGenericShift
034F   1903           03221         BTFSC   STATUS,2
                      03222 ;; >>> /home/sdcc-builder/build/sdcc-build/orig/sdcc/src/pic14/gen.c:5495:genGenericShift
                      03223 ;; ***  popGetLabel  key=26, label offset 94
0350   2???           03224         GOTO    _00220_DS_
                      03225 ;;; /home/sdcc-builder/build/sdcc-build/orig/sdcc/src/pic14/gen.c:5369:genMultiAsm *{*
                      03226 ;; ***  genMultiAsm  5370
                      03227 ;; >>> /home/sdcc-builder/build/sdcc-build/orig/sdcc/src/pic14/gen.c:5387:genMultiAsm
                      03228 ;;      1109 rIdx = r0x105B 
0351                  03229 _00219_DS_
0351   ???? ????      03230         BANKSEL r0x1013
0353   0D??           03231         RLF     r0x1013,F
                      03232 ;; >>> /home/sdcc-builder/build/sdcc-build/orig/sdcc/src/pic14/gen.c:5501:genGenericShift
0354   3E01           03233         ADDLW   0x01
                      03234 ;; >>> /home/sdcc-builder/build/sdcc-build/orig/sdcc/src/pic14/gen.c:5502:genGenericShift
0355   1C03           03235         BTFSS   STATUS,0
                      03236 ;; >>> /home/sdcc-builder/build/sdcc-build/orig/sdcc/src/pic14/gen.c:5503:genGenericShift
                      03237 ;; ***  popGetLabel  key=25, label offset 94
0356   2???           03238         GOTO    _00219_DS_
                      03239 ;;; /home/sdcc-builder/build/sdcc-build/orig/sdcc/src/pic14/gen.c:2316:resultRemat *{*
                      03240 ;;; /home/sdcc-builder/build/sdcc-build/orig/sdcc/src/pic14/gen.c:4220:genOr *{*
                      03241 ;; ***  genOr  4221
                      03242 ;;      694 register type nRegs=1
                      03243 ;;      694 register type nRegs=1
                      03244 ;; ***  aopForSym 315
                      03245 ;;      327 sym->rname = _TRISC, size = 1
                      03246 ;;      line = 4227 result AOP_DIR=_TRISC, size=1, left AOP_REG=r0x1058, size=1, right AOP_REG=r0x105B, 
                            size=1
                      03247 ;;      line = 4253 result AOP_DIR=_TRISC, size=1, left AOP_REG=r0x1058, size=1, right AOP_REG=r0x105B, 
                            size=1
                      03248 ;; >>> /home/sdcc-builder/build/sdcc-build/orig/sdcc/src/pic14/gen.c:4479:genOr
                      03249 ;;      1109 rIdx = r0x105B 
0357                  03250 _00220_DS_
0357   ???? ????      03251         BANKSEL r0x1013
0359   08??           03252         MOVF    r0x1013,W
                      03253 ;; >>> /home/sdcc-builder/build/sdcc-build/orig/sdcc/src/pic14/gen.c:4480:genOr
                      03254 ;;      1109 rIdx = r0x1058 
035A   04??           03255         IORWF   r0x1010,W
                      03256 ;; >>> /home/sdcc-builder/build/sdcc-build/orig/sdcc/src/pic14/gen.c:4481:genOr
                      03257 ;;      1009
                      03258 ;;      1028  _TRISC   offset=0
035B   ???? ????      03259         BANKSEL _TRISC
gpasm-1.4.0 #1106 (Oct  6 2014) obj\Debug\gpi   8-17-2021  02:09:23         PAGE 63


LOC    OBJECT CODE    LINE  SOURCE TEXT
  VALUE

035D   00??           03260         MOVWF   _TRISC
                      03261 ;;; /home/sdcc-builder/build/sdcc-build/orig/sdcc/src/pic14/gen.c:2316:resultRemat *{*
                      03262 ;;; /home/sdcc-builder/build/sdcc-build/orig/sdcc/src/pic14/gen.c:2778:genGoto *{*
                      03263 ;; >>> /home/sdcc-builder/build/sdcc-build/orig/sdcc/src/pic14/gen.c:2780:genGoto
                      03264 ;; ***  popGetLabel  key=8, label offset 94
                      03265         .line   117; "gpio.c"   break;
035E   2???           03266         GOTO    _00202_DS_
                      03267 ;;; /home/sdcc-builder/build/sdcc-build/orig/sdcc/src/pic14/gen.c:2316:resultRemat *{*
                      03268 ;;; /home/sdcc-builder/build/sdcc-build/orig/sdcc/src/pic14/gen.c:2760:genLabel *{*
                      03269 ;; ***  genLabel  2763
                      03270 ;;; /home/sdcc-builder/build/sdcc-build/orig/sdcc/src/pic14/gen.c:2316:resultRemat *{*
                      03271 ;;; /home/sdcc-builder/build/sdcc-build/orig/sdcc/src/pic14/gen.c:5418:genGenericShift *{*
                      03272 ;; ***  genGenericShift  5421
                      03273 ;;      694 register type nRegs=1
                      03274 ;;      694 register type nRegs=1
                      03275 ;; ***  mov2w  1381  offset=0
                      03276 ;; >>> /home/sdcc-builder/build/sdcc-build/orig/sdcc/src/pic14/gen.c:1384:mov2w
035F                  03277 _00198_DS_
                      03278         .line   119; "gpio.c"   SetRegisterPin(DIRECTION_REGISTER_PORTD,pin,direction) ;
035F   3001           03279         MOVLW   0x01
                      03280 ;; >>> /home/sdcc-builder/build/sdcc-build/orig/sdcc/src/pic14/gen.c:1393:movwf
                      03281 ;;      1109 rIdx = r0x1058 
0360   ???? ????      03282         BANKSEL r0x1010
0362   00??           03283         MOVWF   r0x1010
                      03284 ;; ***  addSign  861
                      03285 ;;; /home/sdcc-builder/build/sdcc-build/orig/sdcc/src/pic14/genarith.c:862:addSign *{*
                      03286 ;; ***  mov2w  1381  offset=0
                      03287 ;; >>> /home/sdcc-builder/build/sdcc-build/orig/sdcc/src/pic14/gen.c:1386:mov2w
                      03288 ;;      1109 rIdx = r0x1059 
0363   08??           03289         MOVF    r0x1011,W
                      03290 ;; >>> /home/sdcc-builder/build/sdcc-build/orig/sdcc/src/pic14/gen.c:5492:genGenericShift
0364   3C00           03291         SUBLW   0x00
                      03292 ;; >>> /home/sdcc-builder/build/sdcc-build/orig/sdcc/src/pic14/gen.c:5494:genGenericShift
0365   1903           03293         BTFSC   STATUS,2
                      03294 ;; >>> /home/sdcc-builder/build/sdcc-build/orig/sdcc/src/pic14/gen.c:5495:genGenericShift
                      03295 ;; ***  popGetLabel  key=28, label offset 94
0366   2???           03296         GOTO    _00222_DS_
                      03297 ;;; /home/sdcc-builder/build/sdcc-build/orig/sdcc/src/pic14/gen.c:5369:genMultiAsm *{*
                      03298 ;; ***  genMultiAsm  5370
                      03299 ;; >>> /home/sdcc-builder/build/sdcc-build/orig/sdcc/src/pic14/gen.c:5387:genMultiAsm
                      03300 ;;      1109 rIdx = r0x1058 
0367                  03301 _00221_DS_
0367   ???? ????      03302         BANKSEL r0x1010
0369   0D??           03303         RLF     r0x1010,F
                      03304 ;; >>> /home/sdcc-builder/build/sdcc-build/orig/sdcc/src/pic14/gen.c:5501:genGenericShift
036A   3E01           03305         ADDLW   0x01
                      03306 ;; >>> /home/sdcc-builder/build/sdcc-build/orig/sdcc/src/pic14/gen.c:5502:genGenericShift
036B   1C03           03307         BTFSS   STATUS,0
                      03308 ;; >>> /home/sdcc-builder/build/sdcc-build/orig/sdcc/src/pic14/gen.c:5503:genGenericShift
                      03309 ;; ***  popGetLabel  key=27, label offset 94
036C   2???           03310         GOTO    _00221_DS_
                      03311 ;;; /home/sdcc-builder/build/sdcc-build/orig/sdcc/src/pic14/gen.c:2316:resultRemat *{*
                      03312 ;;; /home/sdcc-builder/build/sdcc-build/orig/sdcc/src/pic14/gen.c:1609:genCpl *{*
gpasm-1.4.0 #1106 (Oct  6 2014) obj\Debug\gpi   8-17-2021  02:09:23         PAGE 64


LOC    OBJECT CODE    LINE  SOURCE TEXT
  VALUE

                      03313 ;; ***  genCpl  1611
                      03314 ;;      694 register type nRegs=1
                      03315 ;;      694 register type nRegs=1
                      03316 ;; >>> /home/sdcc-builder/build/sdcc-build/orig/sdcc/src/pic14/gen.c:1631:genCpl
                      03317 ;;      1109 rIdx = r0x1058 
036D                  03318 _00222_DS_
036D   ???? ????      03319         BANKSEL r0x1010
036F   09??           03320         COMF    r0x1010,F
0370   ???? ????      03321         BANKSEL _TRISD
0372   08??           03322         MOVF    _TRISD,W
                      03323 ;; >>> /home/sdcc-builder/build/sdcc-build/orig/sdcc/src/pic14/gen.c:4138:genAnd
                      03324 ;;      1109 rIdx = r0x1058 
0373   ???? ????      03325         BANKSEL r0x1010
0375   05??           03326         ANDWF   r0x1010,F
                      03327 ;;; /home/sdcc-builder/build/sdcc-build/orig/sdcc/src/pic14/gen.c:2316:resultRemat *{*
                      03328 ;;; /home/sdcc-builder/build/sdcc-build/orig/sdcc/src/pic14/gen.c:5418:genGenericShift *{*
                      03329 ;; ***  genGenericShift  5421
                      03330 ;;      694 register type nRegs=1
                      03331 ;;      694 register type nRegs=1
                      03332 ;;      694 register type nRegs=1
                      03333 ;; ***  mov2w  1381  offset=0
                      03334 ;; >>> /home/sdcc-builder/build/sdcc-build/orig/sdcc/src/pic14/gen.c:1386:mov2w
                      03335 ;;      1109 rIdx = r0x105A 
0376   08??           03336         MOVF    r0x1012,W
                      03337 ;; >>> /home/sdcc-builder/build/sdcc-build/orig/sdcc/src/pic14/gen.c:1393:movwf
                      03338 ;;      1109 rIdx = r0x105B 
0377   00??           03339         MOVWF   r0x1013
                      03340 ;; ***  addSign  861
                      03341 ;;; /home/sdcc-builder/build/sdcc-build/orig/sdcc/src/pic14/genarith.c:862:addSign *{*
                      03342 ;; ***  mov2w  1381  offset=0
                      03343 ;; >>> /home/sdcc-builder/build/sdcc-build/orig/sdcc/src/pic14/gen.c:1386:mov2w
                      03344 ;;      1109 rIdx = r0x1059 
0378   08??           03345         MOVF    r0x1011,W
                      03346 ;; >>> /home/sdcc-builder/build/sdcc-build/orig/sdcc/src/pic14/gen.c:5492:genGenericShift
0379   3C00           03347         SUBLW   0x00
                      03348 ;; >>> /home/sdcc-builder/build/sdcc-build/orig/sdcc/src/pic14/gen.c:5494:genGenericShift
037A   1903           03349         BTFSC   STATUS,2
                      03350 ;; >>> /home/sdcc-builder/build/sdcc-build/orig/sdcc/src/pic14/gen.c:5495:genGenericShift
                      03351 ;; ***  popGetLabel  key=30, label offset 94
037B   2???           03352         GOTO    _00224_DS_
                      03353 ;;; /home/sdcc-builder/build/sdcc-build/orig/sdcc/src/pic14/gen.c:5369:genMultiAsm *{*
                      03354 ;; ***  genMultiAsm  5370
                      03355 ;; >>> /home/sdcc-builder/build/sdcc-build/orig/sdcc/src/pic14/gen.c:5387:genMultiAsm
                      03356 ;;      1109 rIdx = r0x105B 
037C                  03357 _00223_DS_
037C   ???? ????      03358         BANKSEL r0x1013
037E   0D??           03359         RLF     r0x1013,F
                      03360 ;; >>> /home/sdcc-builder/build/sdcc-build/orig/sdcc/src/pic14/gen.c:5501:genGenericShift
037F   3E01           03361         ADDLW   0x01
                      03362 ;; >>> /home/sdcc-builder/build/sdcc-build/orig/sdcc/src/pic14/gen.c:5502:genGenericShift
0380   1C03           03363         BTFSS   STATUS,0
                      03364 ;; >>> /home/sdcc-builder/build/sdcc-build/orig/sdcc/src/pic14/gen.c:5503:genGenericShift
                      03365 ;; ***  popGetLabel  key=29, label offset 94
gpasm-1.4.0 #1106 (Oct  6 2014) obj\Debug\gpi   8-17-2021  02:09:23         PAGE 65


LOC    OBJECT CODE    LINE  SOURCE TEXT
  VALUE

0381   2???           03366         GOTO    _00223_DS_
                      03367 ;;; /home/sdcc-builder/build/sdcc-build/orig/sdcc/src/pic14/gen.c:2316:resultRemat *{*
                      03368 ;;; /home/sdcc-builder/build/sdcc-build/orig/sdcc/src/pic14/gen.c:4220:genOr *{*
                      03369 ;; ***  genOr  4221
                      03370 ;;      694 register type nRegs=1
                      03371 ;;      694 register type nRegs=1
                      03372 ;; ***  aopForSym 315
                      03373 ;;      327 sym->rname = _TRISD, size = 1
                      03374 ;;      line = 4227 result AOP_DIR=_TRISD, size=1, left AOP_REG=r0x1058, size=1, right AOP_REG=r0x105B, 
                            size=1
                      03375 ;;      line = 4253 result AOP_DIR=_TRISD, size=1, left AOP_REG=r0x1058, size=1, right AOP_REG=r0x105B, 
                            size=1
                      03376 ;; >>> /home/sdcc-builder/build/sdcc-build/orig/sdcc/src/pic14/gen.c:4479:genOr
                      03377 ;;      1109 rIdx = r0x105B 
0382                  03378 _00224_DS_
0382   ???? ????      03379         BANKSEL r0x1013
0384   08??           03380         MOVF    r0x1013,W
                      03381 ;; >>> /home/sdcc-builder/build/sdcc-build/orig/sdcc/src/pic14/gen.c:4480:genOr
                      03382 ;;      1109 rIdx = r0x1058 
0385   04??           03383         IORWF   r0x1010,W
                      03384 ;; >>> /home/sdcc-builder/build/sdcc-build/orig/sdcc/src/pic14/gen.c:4481:genOr
                      03385 ;;      1009
                      03386 ;;      1028  _TRISD   offset=0
0386   ???? ????      03387         BANKSEL _TRISD
0388   00??           03388         MOVWF   _TRISD
                      03389 ;;; /home/sdcc-builder/build/sdcc-build/orig/sdcc/src/pic14/gen.c:2316:resultRemat *{*
                      03390 ;;; /home/sdcc-builder/build/sdcc-build/orig/sdcc/src/pic14/gen.c:2778:genGoto *{*
                      03391 ;; >>> /home/sdcc-builder/build/sdcc-build/orig/sdcc/src/pic14/gen.c:2780:genGoto
                      03392 ;; ***  popGetLabel  key=8, label offset 94
                      03393         .line   120; "gpio.c"   break;
0389   2???           03394         GOTO    _00202_DS_
                      03395 ;;; /home/sdcc-builder/build/sdcc-build/orig/sdcc/src/pic14/gen.c:2316:resultRemat *{*
                      03396 ;;; /home/sdcc-builder/build/sdcc-build/orig/sdcc/src/pic14/gen.c:2760:genLabel *{*
                      03397 ;; ***  genLabel  2763
                      03398 ;;; /home/sdcc-builder/build/sdcc-build/orig/sdcc/src/pic14/gen.c:2316:resultRemat *{*
                      03399 ;;; /home/sdcc-builder/build/sdcc-build/orig/sdcc/src/pic14/gen.c:5418:genGenericShift *{*
                      03400 ;; ***  genGenericShift  5421
                      03401 ;;      694 register type nRegs=1
                      03402 ;;      694 register type nRegs=1
                      03403 ;; ***  mov2w  1381  offset=0
                      03404 ;; >>> /home/sdcc-builder/build/sdcc-build/orig/sdcc/src/pic14/gen.c:1384:mov2w
038A                  03405 _00199_DS_
                      03406         .line   122; "gpio.c"   SetRegisterPin(DIRECTION_REGISTER_PORTE,pin,direction) ;
038A   3001           03407         MOVLW   0x01
                      03408 ;; >>> /home/sdcc-builder/build/sdcc-build/orig/sdcc/src/pic14/gen.c:1393:movwf
                      03409 ;;      1109 rIdx = r0x1058 
038B   ???? ????      03410         BANKSEL r0x1010
038D   00??           03411         MOVWF   r0x1010
                      03412 ;; ***  addSign  861
                      03413 ;;; /home/sdcc-builder/build/sdcc-build/orig/sdcc/src/pic14/genarith.c:862:addSign *{*
                      03414 ;; ***  mov2w  1381  offset=0
                      03415 ;; >>> /home/sdcc-builder/build/sdcc-build/orig/sdcc/src/pic14/gen.c:1386:mov2w
                      03416 ;;      1109 rIdx = r0x1059 
gpasm-1.4.0 #1106 (Oct  6 2014) obj\Debug\gpi   8-17-2021  02:09:23         PAGE 66


LOC    OBJECT CODE    LINE  SOURCE TEXT
  VALUE

038E   08??           03417         MOVF    r0x1011,W
                      03418 ;; >>> /home/sdcc-builder/build/sdcc-build/orig/sdcc/src/pic14/gen.c:5492:genGenericShift
038F   3C00           03419         SUBLW   0x00
                      03420 ;; >>> /home/sdcc-builder/build/sdcc-build/orig/sdcc/src/pic14/gen.c:5494:genGenericShift
0390   1903           03421         BTFSC   STATUS,2
                      03422 ;; >>> /home/sdcc-builder/build/sdcc-build/orig/sdcc/src/pic14/gen.c:5495:genGenericShift
                      03423 ;; ***  popGetLabel  key=32, label offset 94
0391   2???           03424         GOTO    _00226_DS_
                      03425 ;;; /home/sdcc-builder/build/sdcc-build/orig/sdcc/src/pic14/gen.c:5369:genMultiAsm *{*
                      03426 ;; ***  genMultiAsm  5370
                      03427 ;; >>> /home/sdcc-builder/build/sdcc-build/orig/sdcc/src/pic14/gen.c:5387:genMultiAsm
                      03428 ;;      1109 rIdx = r0x1058 
0392                  03429 _00225_DS_
0392   ???? ????      03430         BANKSEL r0x1010
0394   0D??           03431         RLF     r0x1010,F
                      03432 ;; >>> /home/sdcc-builder/build/sdcc-build/orig/sdcc/src/pic14/gen.c:5501:genGenericShift
0395   3E01           03433         ADDLW   0x01
                      03434 ;; >>> /home/sdcc-builder/build/sdcc-build/orig/sdcc/src/pic14/gen.c:5502:genGenericShift
0396   1C03           03435         BTFSS   STATUS,0
                      03436 ;; >>> /home/sdcc-builder/build/sdcc-build/orig/sdcc/src/pic14/gen.c:5503:genGenericShift
                      03437 ;; ***  popGetLabel  key=31, label offset 94
0397   2???           03438         GOTO    _00225_DS_
                      03439 ;;; /home/sdcc-builder/build/sdcc-build/orig/sdcc/src/pic14/gen.c:2316:resultRemat *{*
                      03440 ;;; /home/sdcc-builder/build/sdcc-build/orig/sdcc/src/pic14/gen.c:1609:genCpl *{*
                      03441 ;; ***  genCpl  1611
                      03442 ;;      694 register type nRegs=1
                      03443 ;;      694 register type nRegs=1
                      03444 ;; >>> /home/sdcc-builder/build/sdcc-build/orig/sdcc/src/pic14/gen.c:1631:genCpl
                      03445 ;;      1109 rIdx = r0x1058 
0398                  03446 _00226_DS_
0398   ???? ????      03447         BANKSEL r0x1010
039A   09??           03448         COMF    r0x1010,F
039B   ???? ????      03449         BANKSEL _TRISE
039D   08??           03450         MOVF    _TRISE,W
                      03451 ;; >>> /home/sdcc-builder/build/sdcc-build/orig/sdcc/src/pic14/gen.c:4138:genAnd
                      03452 ;;      1109 rIdx = r0x1058 
039E   ???? ????      03453         BANKSEL r0x1010
03A0   05??           03454         ANDWF   r0x1010,F
                      03455 ;;; /home/sdcc-builder/build/sdcc-build/orig/sdcc/src/pic14/gen.c:2316:resultRemat *{*
                      03456 ;;; /home/sdcc-builder/build/sdcc-build/orig/sdcc/src/pic14/gen.c:5418:genGenericShift *{*
                      03457 ;; ***  genGenericShift  5421
                      03458 ;;      694 register type nRegs=1
                      03459 ;;      694 register type nRegs=1
                      03460 ;;      694 register type nRegs=1
                      03461 ;; ***  mov2w  1381  offset=0
                      03462 ;; >>> /home/sdcc-builder/build/sdcc-build/orig/sdcc/src/pic14/gen.c:1386:mov2w
                      03463 ;;      1109 rIdx = r0x105A 
03A1   08??           03464         MOVF    r0x1012,W
                      03465 ;; >>> /home/sdcc-builder/build/sdcc-build/orig/sdcc/src/pic14/gen.c:1393:movwf
                      03466 ;;      1109 rIdx = r0x105B 
03A2   00??           03467         MOVWF   r0x1013
                      03468 ;; ***  addSign  861
                      03469 ;;; /home/sdcc-builder/build/sdcc-build/orig/sdcc/src/pic14/genarith.c:862:addSign *{*
gpasm-1.4.0 #1106 (Oct  6 2014) obj\Debug\gpi   8-17-2021  02:09:23         PAGE 67


LOC    OBJECT CODE    LINE  SOURCE TEXT
  VALUE

                      03470 ;; ***  mov2w  1381  offset=0
                      03471 ;; >>> /home/sdcc-builder/build/sdcc-build/orig/sdcc/src/pic14/gen.c:1386:mov2w
                      03472 ;;      1109 rIdx = r0x1059 
03A3   08??           03473         MOVF    r0x1011,W
                      03474 ;; >>> /home/sdcc-builder/build/sdcc-build/orig/sdcc/src/pic14/gen.c:5492:genGenericShift
03A4   3C00           03475         SUBLW   0x00
                      03476 ;; >>> /home/sdcc-builder/build/sdcc-build/orig/sdcc/src/pic14/gen.c:5494:genGenericShift
03A5   1903           03477         BTFSC   STATUS,2
                      03478 ;; >>> /home/sdcc-builder/build/sdcc-build/orig/sdcc/src/pic14/gen.c:5495:genGenericShift
                      03479 ;; ***  popGetLabel  key=34, label offset 94
03A6   2???           03480         GOTO    _00228_DS_
                      03481 ;;; /home/sdcc-builder/build/sdcc-build/orig/sdcc/src/pic14/gen.c:5369:genMultiAsm *{*
                      03482 ;; ***  genMultiAsm  5370
                      03483 ;; >>> /home/sdcc-builder/build/sdcc-build/orig/sdcc/src/pic14/gen.c:5387:genMultiAsm
                      03484 ;;      1109 rIdx = r0x105B 
03A7                  03485 _00227_DS_
03A7   ???? ????      03486         BANKSEL r0x1013
03A9   0D??           03487         RLF     r0x1013,F
                      03488 ;; >>> /home/sdcc-builder/build/sdcc-build/orig/sdcc/src/pic14/gen.c:5501:genGenericShift
03AA   3E01           03489         ADDLW   0x01
                      03490 ;; >>> /home/sdcc-builder/build/sdcc-build/orig/sdcc/src/pic14/gen.c:5502:genGenericShift
03AB   1C03           03491         BTFSS   STATUS,0
                      03492 ;; >>> /home/sdcc-builder/build/sdcc-build/orig/sdcc/src/pic14/gen.c:5503:genGenericShift
                      03493 ;; ***  popGetLabel  key=33, label offset 94
03AC   2???           03494         GOTO    _00227_DS_
                      03495 ;;; /home/sdcc-builder/build/sdcc-build/orig/sdcc/src/pic14/gen.c:2316:resultRemat *{*
                      03496 ;;; /home/sdcc-builder/build/sdcc-build/orig/sdcc/src/pic14/gen.c:4220:genOr *{*
                      03497 ;; ***  genOr  4221
                      03498 ;;      694 register type nRegs=1
                      03499 ;;      694 register type nRegs=1
                      03500 ;; ***  aopForSym 315
                      03501 ;;      327 sym->rname = _TRISE, size = 1
                      03502 ;;      line = 4227 result AOP_DIR=_TRISE, size=1, left AOP_REG=r0x1058, size=1, right AOP_REG=r0x105B, 
                            size=1
                      03503 ;;      line = 4253 result AOP_DIR=_TRISE, size=1, left AOP_REG=r0x1058, size=1, right AOP_REG=r0x105B, 
                            size=1
                      03504 ;; >>> /home/sdcc-builder/build/sdcc-build/orig/sdcc/src/pic14/gen.c:4479:genOr
                      03505 ;;      1109 rIdx = r0x105B 
03AD                  03506 _00228_DS_
03AD   ???? ????      03507         BANKSEL r0x1013
03AF   08??           03508         MOVF    r0x1013,W
                      03509 ;; >>> /home/sdcc-builder/build/sdcc-build/orig/sdcc/src/pic14/gen.c:4480:genOr
                      03510 ;;      1109 rIdx = r0x1058 
03B0   04??           03511         IORWF   r0x1010,W
                      03512 ;; >>> /home/sdcc-builder/build/sdcc-build/orig/sdcc/src/pic14/gen.c:4481:genOr
                      03513 ;;      1009
                      03514 ;;      1028  _TRISE   offset=0
03B1   ???? ????      03515         BANKSEL _TRISE
03B3   00??           03516         MOVWF   _TRISE
                      03517 ;;; /home/sdcc-builder/build/sdcc-build/orig/sdcc/src/pic14/gen.c:2316:resultRemat *{*
                      03518 ;;; /home/sdcc-builder/build/sdcc-build/orig/sdcc/src/pic14/gen.c:2760:genLabel *{*
                      03519 ;; ***  genLabel  2763
                      03520 ;;; /home/sdcc-builder/build/sdcc-build/orig/sdcc/src/pic14/gen.c:2316:resultRemat *{*
gpasm-1.4.0 #1106 (Oct  6 2014) obj\Debug\gpi   8-17-2021  02:09:23         PAGE 68


LOC    OBJECT CODE    LINE  SOURCE TEXT
  VALUE

                      03521 ;;; /home/sdcc-builder/build/sdcc-build/orig/sdcc/src/pic14/gen.c:2528:genEndFunction *{*
                      03522 ;; ***  genEndFunction  2530
03B4                  03523 _00202_DS_
                      03524         .line   127; "gpio.c"   }
03B4   0008           03525         RETURN  
                      03526 ; exit point of _GPIO_SetPinDirection
                      03527 ;;; /home/sdcc-builder/build/sdcc-build/orig/sdcc/src/pic14/gen.c:7426:genpic14Code *{*
                      03528 
                      03529 ;***
                      03530 ;  pBlock Stats: dbName = C
                      03531 ;***
                      03532 ;entry:  _GPIO_SetPinState      ;Function start
                      03533 ; 2 exit points
                      03534 ;has an exit
                      03535 ;6 compiler assigned registers:
                      03536 ;   r0x1014
                      03537 ;   STK00
                      03538 ;   r0x1015
                      03539 ;   STK01
                      03540 ;   r0x1016
                      03541 ;   r0x1017
                      03542 ;; Starting pCode block
                      03543 ;;; /home/sdcc-builder/build/sdcc-build/orig/sdcc/src/pic14/gen.c:2316:resultRemat *{*
                      03544 ;;; /home/sdcc-builder/build/sdcc-build/orig/sdcc/src/pic14/gen.c:2760:genLabel *{*
                      03545 ;; ***  genLabel  2763
                      03546 ;;; /home/sdcc-builder/build/sdcc-build/orig/sdcc/src/pic14/gen.c:2316:resultRemat *{*
                      03547 ;;; /home/sdcc-builder/build/sdcc-build/orig/sdcc/src/pic14/gen.c:2340:genFunction *{*
                      03548 ;; ***  genFunction  2342 curr label offset=38previous max_key=14 
03B5                  03549 _GPIO_SetPinState       ;Function start
                      03550 ; 2 exit points
                      03551 ;;; /home/sdcc-builder/build/sdcc-build/orig/sdcc/src/pic14/gen.c:2316:resultRemat *{*
                      03552 ;;; /home/sdcc-builder/build/sdcc-build/orig/sdcc/src/pic14/gen.c:7358:genReceive *{*
                      03553 ;; ***  genReceive  7359
                      03554 ;;      694 register type nRegs=1
                      03555 ;;; /home/sdcc-builder/build/sdcc-build/orig/sdcc/src/pic14/gen.c:1907:assignResultValue *{*
                      03556 ;; ***  assignResultValue  1909
                      03557 ;;      line = 1911 result -=-, size=0, left AOP_REG=r0x1054, size=1, right -=-, size=0
                      03558 ;; >>> /home/sdcc-builder/build/sdcc-build/orig/sdcc/src/pic14/gen.c:1393:movwf
                      03559 ;;      1109 rIdx = r0x1054 
                      03560         .line   81; "gpio.c"    void GPIO_SetPinState(tPORT port , tPIN pin , tSTATE state)
03B5   ???? ????      03561         BANKSEL r0x1014
03B7   00??           03562         MOVWF   r0x1014
                      03563 ;;; /home/sdcc-builder/build/sdcc-build/orig/sdcc/src/pic14/gen.c:2316:resultRemat *{*
                      03564 ;;; /home/sdcc-builder/build/sdcc-build/orig/sdcc/src/pic14/gen.c:7358:genReceive *{*
                      03565 ;; ***  genReceive  7359
                      03566 ;;      694 register type nRegs=1
                      03567 ;;; /home/sdcc-builder/build/sdcc-build/orig/sdcc/src/pic14/gen.c:1907:assignResultValue *{*
                      03568 ;; ***  assignResultValue  1909
                      03569 ;;      line = 1911 result -=-, size=0, left AOP_REG=r0x1055, size=1, right -=-, size=0
                      03570 ;; >>> /home/sdcc-builder/build/sdcc-build/orig/sdcc/src/pic14/gen.c:1423:get_returnvalue
                      03571 ;; ***  popRegFromIdx,1042  , rIdx=0x7f
03B8   08??           03572         MOVF    STK00,W
                      03573 ;; >>> /home/sdcc-builder/build/sdcc-build/orig/sdcc/src/pic14/gen.c:1393:movwf
gpasm-1.4.0 #1106 (Oct  6 2014) obj\Debug\gpi   8-17-2021  02:09:23         PAGE 69


LOC    OBJECT CODE    LINE  SOURCE TEXT
  VALUE

                      03574 ;;      1109 rIdx = r0x1055 
03B9   00??           03575         MOVWF   r0x1015
                      03576 ;;; /home/sdcc-builder/build/sdcc-build/orig/sdcc/src/pic14/gen.c:2316:resultRemat *{*
                      03577 ;;; /home/sdcc-builder/build/sdcc-build/orig/sdcc/src/pic14/gen.c:7358:genReceive *{*
                      03578 ;; ***  genReceive  7359
                      03579 ;;      694 register type nRegs=1
                      03580 ;;; /home/sdcc-builder/build/sdcc-build/orig/sdcc/src/pic14/gen.c:1907:assignResultValue *{*
                      03581 ;; ***  assignResultValue  1909
                      03582 ;;      line = 1911 result -=-, size=0, left AOP_REG=r0x1056, size=1, right -=-, size=0
                      03583 ;; >>> /home/sdcc-builder/build/sdcc-build/orig/sdcc/src/pic14/gen.c:1423:get_returnvalue
                      03584 ;; ***  popRegFromIdx,1042  , rIdx=0x7e
03BA   08??           03585         MOVF    STK01,W
                      03586 ;; >>> /home/sdcc-builder/build/sdcc-build/orig/sdcc/src/pic14/gen.c:1393:movwf
                      03587 ;;      1109 rIdx = r0x1056 
03BB   00??           03588         MOVWF   r0x1016
                      03589 ;;; /home/sdcc-builder/build/sdcc-build/orig/sdcc/src/pic14/gen.c:2316:resultRemat *{*
                      03590 ;;; /home/sdcc-builder/build/sdcc-build/orig/sdcc/src/pic14/gen.c:3547:genCmpGt *{*
                      03591 ;; ***  genCmpGt  3548
                      03592 ;;      694 register type nRegs=1
                      03593 ;;; /home/sdcc-builder/build/sdcc-build/orig/sdcc/src/pic14/gen.c:3294:genCmp *{*
                      03594 ;;swapping arguments (AOP_TYPEs 1/2)
                      03595 ;;unsigned compare: left >= lit(0x5=5), size=1
                      03596 ;; >>> /home/sdcc-builder/build/sdcc-build/orig/sdcc/src/pic14/gen.c:3265:pic14_mov2w_regOrLit
                      03597         .line   83; "gpio.c"    switch(port)
03BC   3005           03598         MOVLW   0x05
                      03599 ;; >>> /home/sdcc-builder/build/sdcc-build/orig/sdcc/src/pic14/gen.c:3432:genCmp
                      03600 ;;      1109 rIdx = r0x1054 
03BD   02??           03601         SUBWF   r0x1014,W
                      03602 ;;; /home/sdcc-builder/build/sdcc-build/orig/sdcc/src/pic14/gen.c:3237:genSkipc *{*
                      03603 ;; >>> /home/sdcc-builder/build/sdcc-build/orig/sdcc/src/pic14/gen.c:3242:genSkipc
03BE   1803           03604         BTFSC   STATUS,0
                      03605 ;; >>> /home/sdcc-builder/build/sdcc-build/orig/sdcc/src/pic14/gen.c:3246:genSkipc
                      03606 ;; ***  popGetLabel  key=8, label offset 56
03BF   2???           03607         GOTO    _00164_DS_
                      03608 ;;genSkipc:3247: created from rifx:027A5DF4
                      03609 ;;; /home/sdcc-builder/build/sdcc-build/orig/sdcc/src/pic14/gen.c:2316:resultRemat *{*
                      03610 ;;; /home/sdcc-builder/build/sdcc-build/orig/sdcc/src/pic14/gen.c:2316:resultRemat *{*
                      03611 ;;; /home/sdcc-builder/build/sdcc-build/orig/sdcc/src/pic14/gen.c:7071:genJumpTab *{*
                      03612 ;; ***  genJumpTab  7072
                      03613 ;;      694 register type nRegs=1
                      03614 ;; >>> /home/sdcc-builder/build/sdcc-build/orig/sdcc/src/pic14/gen.c:7087:genJumpTab
                      03615 ;; ***  popGetLabel  key=14, label offset 56
03C0   30??           03616         MOVLW   HIGH(_00170_DS_)
                      03617 ;; >>> /home/sdcc-builder/build/sdcc-build/orig/sdcc/src/pic14/gen.c:7088:genJumpTab
03C1   1283 1303      03618         BANKSEL PCLATH
03C3   008A           03619         MOVWF   PCLATH
                      03620 ;; >>> /home/sdcc-builder/build/sdcc-build/orig/sdcc/src/pic14/gen.c:7089:genJumpTab
                      03621 ;; ***  popGetLabel  key=14, label offset 56
03C4   30??           03622         MOVLW   _00170_DS_
                      03623 ;; >>> /home/sdcc-builder/build/sdcc-build/orig/sdcc/src/pic14/gen.c:7090:genJumpTab
                      03624 ;;      1109 rIdx = r0x1054 
03C5   ???? ????      03625         BANKSEL r0x1014
03C7   07??           03626         ADDWF   r0x1014,W
gpasm-1.4.0 #1106 (Oct  6 2014) obj\Debug\gpi   8-17-2021  02:09:23         PAGE 70


LOC    OBJECT CODE    LINE  SOURCE TEXT
  VALUE

                      03627 ;; >>> /home/sdcc-builder/build/sdcc-build/orig/sdcc/src/pic14/gen.c:7091:genJumpTab
03C8   1C03           03628         BTFSS   STATUS,0
03C9   2???           03629         GOTO    _00006_DS_
                      03630 ;; >>> /home/sdcc-builder/build/sdcc-build/orig/sdcc/src/pic14/gen.c:7092:genJumpTab
03CA   1283 1303      03631         BANKSEL PCLATH
03CC   0A8A           03632         INCF    PCLATH,F
                      03633 ;; >>> /home/sdcc-builder/build/sdcc-build/orig/sdcc/src/pic14/gen.c:7093:genJumpTab
03CD                  03634 _00006_DS_
03CD   0082           03635         MOVWF   PCL
                      03636 ;; >>> /home/sdcc-builder/build/sdcc-build/orig/sdcc/src/pic14/gen.c:7102:genJumpTab
                      03637 ;; ***  popGetLabel  key=1, label offset 56
03CE                  03638 _00170_DS_
03CE   2???           03639         GOTO    _00157_DS_
                      03640 ;; >>> /home/sdcc-builder/build/sdcc-build/orig/sdcc/src/pic14/gen.c:7102:genJumpTab
                      03641 ;; ***  popGetLabel  key=2, label offset 56
03CF   2???           03642         GOTO    _00158_DS_
                      03643 ;; >>> /home/sdcc-builder/build/sdcc-build/orig/sdcc/src/pic14/gen.c:7102:genJumpTab
                      03644 ;; ***  popGetLabel  key=3, label offset 56
03D0   2???           03645         GOTO    _00159_DS_
                      03646 ;; >>> /home/sdcc-builder/build/sdcc-build/orig/sdcc/src/pic14/gen.c:7102:genJumpTab
                      03647 ;; ***  popGetLabel  key=4, label offset 56
03D1   2???           03648         GOTO    _00160_DS_
                      03649 ;; >>> /home/sdcc-builder/build/sdcc-build/orig/sdcc/src/pic14/gen.c:7102:genJumpTab
                      03650 ;; ***  popGetLabel  key=5, label offset 56
03D2   2???           03651         GOTO    _00161_DS_
                      03652 ;;; /home/sdcc-builder/build/sdcc-build/orig/sdcc/src/pic14/gen.c:2316:resultRemat *{*
                      03653 ;;; /home/sdcc-builder/build/sdcc-build/orig/sdcc/src/pic14/gen.c:2760:genLabel *{*
                      03654 ;; ***  genLabel  2763
                      03655 ;;; /home/sdcc-builder/build/sdcc-build/orig/sdcc/src/pic14/gen.c:2316:resultRemat *{*
                      03656 ;;; /home/sdcc-builder/build/sdcc-build/orig/sdcc/src/pic14/gen.c:5418:genGenericShift *{*
                      03657 ;; ***  genGenericShift  5421
                      03658 ;;      694 register type nRegs=1
                      03659 ;;      694 register type nRegs=1
                      03660 ;; ***  mov2w  1381  offset=0
                      03661 ;; >>> /home/sdcc-builder/build/sdcc-build/orig/sdcc/src/pic14/gen.c:1384:mov2w
03D3                  03662 _00157_DS_
                      03663         .line   86; "gpio.c"    SetRegisterPin(DATA_REGISTER_WRITE_PORTA,pin,state) ;
03D3   3001           03664         MOVLW   0x01
                      03665 ;; >>> /home/sdcc-builder/build/sdcc-build/orig/sdcc/src/pic14/gen.c:1393:movwf
                      03666 ;;      1109 rIdx = r0x1054 
03D4   ???? ????      03667         BANKSEL r0x1014
03D6   00??           03668         MOVWF   r0x1014
                      03669 ;; ***  addSign  861
                      03670 ;;; /home/sdcc-builder/build/sdcc-build/orig/sdcc/src/pic14/genarith.c:862:addSign *{*
                      03671 ;; ***  mov2w  1381  offset=0
                      03672 ;; >>> /home/sdcc-builder/build/sdcc-build/orig/sdcc/src/pic14/gen.c:1386:mov2w
                      03673 ;;      1109 rIdx = r0x1055 
03D7   08??           03674         MOVF    r0x1015,W
                      03675 ;; >>> /home/sdcc-builder/build/sdcc-build/orig/sdcc/src/pic14/gen.c:5492:genGenericShift
03D8   3C00           03676         SUBLW   0x00
                      03677 ;; >>> /home/sdcc-builder/build/sdcc-build/orig/sdcc/src/pic14/gen.c:5494:genGenericShift
03D9   1903           03678         BTFSC   STATUS,2
                      03679 ;; >>> /home/sdcc-builder/build/sdcc-build/orig/sdcc/src/pic14/gen.c:5495:genGenericShift
gpasm-1.4.0 #1106 (Oct  6 2014) obj\Debug\gpi   8-17-2021  02:09:23         PAGE 71


LOC    OBJECT CODE    LINE  SOURCE TEXT
  VALUE

                      03680 ;; ***  popGetLabel  key=16, label offset 56
03DA   2???           03681         GOTO    _00172_DS_
                      03682 ;;; /home/sdcc-builder/build/sdcc-build/orig/sdcc/src/pic14/gen.c:5369:genMultiAsm *{*
                      03683 ;; ***  genMultiAsm  5370
                      03684 ;; >>> /home/sdcc-builder/build/sdcc-build/orig/sdcc/src/pic14/gen.c:5387:genMultiAsm
                      03685 ;;      1109 rIdx = r0x1054 
03DB                  03686 _00171_DS_
03DB   ???? ????      03687         BANKSEL r0x1014
03DD   0D??           03688         RLF     r0x1014,F
                      03689 ;; >>> /home/sdcc-builder/build/sdcc-build/orig/sdcc/src/pic14/gen.c:5501:genGenericShift
03DE   3E01           03690         ADDLW   0x01
                      03691 ;; >>> /home/sdcc-builder/build/sdcc-build/orig/sdcc/src/pic14/gen.c:5502:genGenericShift
03DF   1C03           03692         BTFSS   STATUS,0
                      03693 ;; >>> /home/sdcc-builder/build/sdcc-build/orig/sdcc/src/pic14/gen.c:5503:genGenericShift
                      03694 ;; ***  popGetLabel  key=15, label offset 56
03E0   2???           03695         GOTO    _00171_DS_
                      03696 ;;; /home/sdcc-builder/build/sdcc-build/orig/sdcc/src/pic14/gen.c:2316:resultRemat *{*
                      03697 ;;; /home/sdcc-builder/build/sdcc-build/orig/sdcc/src/pic14/gen.c:1609:genCpl *{*
                      03698 ;; ***  genCpl  1611
                      03699 ;;      694 register type nRegs=1
                      03700 ;;      694 register type nRegs=1
                      03701 ;; >>> /home/sdcc-builder/build/sdcc-build/orig/sdcc/src/pic14/gen.c:1631:genCpl
                      03702 ;;      1109 rIdx = r0x1054 
03E1                  03703 _00172_DS_
03E1   ???? ????      03704         BANKSEL r0x1014
03E3   09??           03705         COMF    r0x1014,F
03E4   ???? ????      03706         BANKSEL _PORTA
03E6   08??           03707         MOVF    _PORTA,W
                      03708 ;; >>> /home/sdcc-builder/build/sdcc-build/orig/sdcc/src/pic14/gen.c:4138:genAnd
                      03709 ;;      1109 rIdx = r0x1054 
03E7   ???? ????      03710         BANKSEL r0x1014
03E9   05??           03711         ANDWF   r0x1014,F
                      03712 ;;; /home/sdcc-builder/build/sdcc-build/orig/sdcc/src/pic14/gen.c:2316:resultRemat *{*
                      03713 ;;; /home/sdcc-builder/build/sdcc-build/orig/sdcc/src/pic14/gen.c:5418:genGenericShift *{*
                      03714 ;; ***  genGenericShift  5421
                      03715 ;;      694 register type nRegs=1
                      03716 ;;      694 register type nRegs=1
                      03717 ;;      694 register type nRegs=1
                      03718 ;; ***  mov2w  1381  offset=0
                      03719 ;; >>> /home/sdcc-builder/build/sdcc-build/orig/sdcc/src/pic14/gen.c:1386:mov2w
                      03720 ;;      1109 rIdx = r0x1056 
03EA   08??           03721         MOVF    r0x1016,W
                      03722 ;; >>> /home/sdcc-builder/build/sdcc-build/orig/sdcc/src/pic14/gen.c:1393:movwf
                      03723 ;;      1109 rIdx = r0x1057 
03EB   00??           03724         MOVWF   r0x1017
                      03725 ;; ***  addSign  861
                      03726 ;;; /home/sdcc-builder/build/sdcc-build/orig/sdcc/src/pic14/genarith.c:862:addSign *{*
                      03727 ;; ***  mov2w  1381  offset=0
                      03728 ;; >>> /home/sdcc-builder/build/sdcc-build/orig/sdcc/src/pic14/gen.c:1386:mov2w
                      03729 ;;      1109 rIdx = r0x1055 
03EC   08??           03730         MOVF    r0x1015,W
                      03731 ;; >>> /home/sdcc-builder/build/sdcc-build/orig/sdcc/src/pic14/gen.c:5492:genGenericShift
03ED   3C00           03732         SUBLW   0x00
gpasm-1.4.0 #1106 (Oct  6 2014) obj\Debug\gpi   8-17-2021  02:09:23         PAGE 72


LOC    OBJECT CODE    LINE  SOURCE TEXT
  VALUE

                      03733 ;; >>> /home/sdcc-builder/build/sdcc-build/orig/sdcc/src/pic14/gen.c:5494:genGenericShift
03EE   1903           03734         BTFSC   STATUS,2
                      03735 ;; >>> /home/sdcc-builder/build/sdcc-build/orig/sdcc/src/pic14/gen.c:5495:genGenericShift
                      03736 ;; ***  popGetLabel  key=18, label offset 56
03EF   2???           03737         GOTO    _00174_DS_
                      03738 ;;; /home/sdcc-builder/build/sdcc-build/orig/sdcc/src/pic14/gen.c:5369:genMultiAsm *{*
                      03739 ;; ***  genMultiAsm  5370
                      03740 ;; >>> /home/sdcc-builder/build/sdcc-build/orig/sdcc/src/pic14/gen.c:5387:genMultiAsm
                      03741 ;;      1109 rIdx = r0x1057 
03F0                  03742 _00173_DS_
03F0   ???? ????      03743         BANKSEL r0x1017
03F2   0D??           03744         RLF     r0x1017,F
                      03745 ;; >>> /home/sdcc-builder/build/sdcc-build/orig/sdcc/src/pic14/gen.c:5501:genGenericShift
03F3   3E01           03746         ADDLW   0x01
                      03747 ;; >>> /home/sdcc-builder/build/sdcc-build/orig/sdcc/src/pic14/gen.c:5502:genGenericShift
03F4   1C03           03748         BTFSS   STATUS,0
                      03749 ;; >>> /home/sdcc-builder/build/sdcc-build/orig/sdcc/src/pic14/gen.c:5503:genGenericShift
                      03750 ;; ***  popGetLabel  key=17, label offset 56
03F5   2???           03751         GOTO    _00173_DS_
                      03752 ;;; /home/sdcc-builder/build/sdcc-build/orig/sdcc/src/pic14/gen.c:2316:resultRemat *{*
                      03753 ;;; /home/sdcc-builder/build/sdcc-build/orig/sdcc/src/pic14/gen.c:4220:genOr *{*
                      03754 ;; ***  genOr  4221
                      03755 ;;      694 register type nRegs=1
                      03756 ;;      694 register type nRegs=1
                      03757 ;; ***  aopForSym 315
                      03758 ;;      327 sym->rname = _PORTA, size = 1
                      03759 ;;      line = 4227 result AOP_DIR=_PORTA, size=1, left AOP_REG=r0x1054, size=1, right AOP_REG=r0x1057, 
                            size=1
                      03760 ;;      line = 4253 result AOP_DIR=_PORTA, size=1, left AOP_REG=r0x1054, size=1, right AOP_REG=r0x1057, 
                            size=1
                      03761 ;; >>> /home/sdcc-builder/build/sdcc-build/orig/sdcc/src/pic14/gen.c:4479:genOr
                      03762 ;;      1109 rIdx = r0x1057 
03F6                  03763 _00174_DS_
03F6   ???? ????      03764         BANKSEL r0x1017
03F8   08??           03765         MOVF    r0x1017,W
                      03766 ;; >>> /home/sdcc-builder/build/sdcc-build/orig/sdcc/src/pic14/gen.c:4480:genOr
                      03767 ;;      1109 rIdx = r0x1054 
03F9   04??           03768         IORWF   r0x1014,W
                      03769 ;; >>> /home/sdcc-builder/build/sdcc-build/orig/sdcc/src/pic14/gen.c:4481:genOr
                      03770 ;;      1009
                      03771 ;;      1028  _PORTA   offset=0
03FA   ???? ????      03772         BANKSEL _PORTA
03FC   00??           03773         MOVWF   _PORTA
                      03774 ;;; /home/sdcc-builder/build/sdcc-build/orig/sdcc/src/pic14/gen.c:2316:resultRemat *{*
                      03775 ;;; /home/sdcc-builder/build/sdcc-build/orig/sdcc/src/pic14/gen.c:2778:genGoto *{*
                      03776 ;; >>> /home/sdcc-builder/build/sdcc-build/orig/sdcc/src/pic14/gen.c:2780:genGoto
                      03777 ;; ***  popGetLabel  key=8, label offset 56
                      03778         .line   87; "gpio.c"    break;
03FD   2???           03779         GOTO    _00164_DS_
                      03780 ;;; /home/sdcc-builder/build/sdcc-build/orig/sdcc/src/pic14/gen.c:2316:resultRemat *{*
                      03781 ;;; /home/sdcc-builder/build/sdcc-build/orig/sdcc/src/pic14/gen.c:2760:genLabel *{*
                      03782 ;; ***  genLabel  2763
                      03783 ;;; /home/sdcc-builder/build/sdcc-build/orig/sdcc/src/pic14/gen.c:2316:resultRemat *{*
gpasm-1.4.0 #1106 (Oct  6 2014) obj\Debug\gpi   8-17-2021  02:09:23         PAGE 73


LOC    OBJECT CODE    LINE  SOURCE TEXT
  VALUE

                      03784 ;;; /home/sdcc-builder/build/sdcc-build/orig/sdcc/src/pic14/gen.c:5418:genGenericShift *{*
                      03785 ;; ***  genGenericShift  5421
                      03786 ;;      694 register type nRegs=1
                      03787 ;;      694 register type nRegs=1
                      03788 ;; ***  mov2w  1381  offset=0
                      03789 ;; >>> /home/sdcc-builder/build/sdcc-build/orig/sdcc/src/pic14/gen.c:1384:mov2w
03FE                  03790 _00158_DS_
                      03791         .line   89; "gpio.c"    SetRegisterPin(DATA_REGISTER_WRITE_PORTB,pin,state) ;
03FE   3001           03792         MOVLW   0x01
                      03793 ;; >>> /home/sdcc-builder/build/sdcc-build/orig/sdcc/src/pic14/gen.c:1393:movwf
                      03794 ;;      1109 rIdx = r0x1054 
03FF   ???? ????      03795         BANKSEL r0x1014
0401   00??           03796         MOVWF   r0x1014
                      03797 ;; ***  addSign  861
                      03798 ;;; /home/sdcc-builder/build/sdcc-build/orig/sdcc/src/pic14/genarith.c:862:addSign *{*
                      03799 ;; ***  mov2w  1381  offset=0
                      03800 ;; >>> /home/sdcc-builder/build/sdcc-build/orig/sdcc/src/pic14/gen.c:1386:mov2w
                      03801 ;;      1109 rIdx = r0x1055 
0402   08??           03802         MOVF    r0x1015,W
                      03803 ;; >>> /home/sdcc-builder/build/sdcc-build/orig/sdcc/src/pic14/gen.c:5492:genGenericShift
0403   3C00           03804         SUBLW   0x00
                      03805 ;; >>> /home/sdcc-builder/build/sdcc-build/orig/sdcc/src/pic14/gen.c:5494:genGenericShift
0404   1903           03806         BTFSC   STATUS,2
                      03807 ;; >>> /home/sdcc-builder/build/sdcc-build/orig/sdcc/src/pic14/gen.c:5495:genGenericShift
                      03808 ;; ***  popGetLabel  key=20, label offset 56
0405   2???           03809         GOTO    _00176_DS_
                      03810 ;;; /home/sdcc-builder/build/sdcc-build/orig/sdcc/src/pic14/gen.c:5369:genMultiAsm *{*
                      03811 ;; ***  genMultiAsm  5370
                      03812 ;; >>> /home/sdcc-builder/build/sdcc-build/orig/sdcc/src/pic14/gen.c:5387:genMultiAsm
                      03813 ;;      1109 rIdx = r0x1054 
0406                  03814 _00175_DS_
0406   ???? ????      03815         BANKSEL r0x1014
0408   0D??           03816         RLF     r0x1014,F
                      03817 ;; >>> /home/sdcc-builder/build/sdcc-build/orig/sdcc/src/pic14/gen.c:5501:genGenericShift
0409   3E01           03818         ADDLW   0x01
                      03819 ;; >>> /home/sdcc-builder/build/sdcc-build/orig/sdcc/src/pic14/gen.c:5502:genGenericShift
040A   1C03           03820         BTFSS   STATUS,0
                      03821 ;; >>> /home/sdcc-builder/build/sdcc-build/orig/sdcc/src/pic14/gen.c:5503:genGenericShift
                      03822 ;; ***  popGetLabel  key=19, label offset 56
040B   2???           03823         GOTO    _00175_DS_
                      03824 ;;; /home/sdcc-builder/build/sdcc-build/orig/sdcc/src/pic14/gen.c:2316:resultRemat *{*
                      03825 ;;; /home/sdcc-builder/build/sdcc-build/orig/sdcc/src/pic14/gen.c:1609:genCpl *{*
                      03826 ;; ***  genCpl  1611
                      03827 ;;      694 register type nRegs=1
                      03828 ;;      694 register type nRegs=1
                      03829 ;; >>> /home/sdcc-builder/build/sdcc-build/orig/sdcc/src/pic14/gen.c:1631:genCpl
                      03830 ;;      1109 rIdx = r0x1054 
040C                  03831 _00176_DS_
040C   ???? ????      03832         BANKSEL r0x1014
040E   09??           03833         COMF    r0x1014,F
040F   ???? ????      03834         BANKSEL _PORTB
0411   08??           03835         MOVF    _PORTB,W
                      03836 ;; >>> /home/sdcc-builder/build/sdcc-build/orig/sdcc/src/pic14/gen.c:4138:genAnd
gpasm-1.4.0 #1106 (Oct  6 2014) obj\Debug\gpi   8-17-2021  02:09:23         PAGE 74


LOC    OBJECT CODE    LINE  SOURCE TEXT
  VALUE

                      03837 ;;      1109 rIdx = r0x1054 
0412   ???? ????      03838         BANKSEL r0x1014
0414   05??           03839         ANDWF   r0x1014,F
                      03840 ;;; /home/sdcc-builder/build/sdcc-build/orig/sdcc/src/pic14/gen.c:2316:resultRemat *{*
                      03841 ;;; /home/sdcc-builder/build/sdcc-build/orig/sdcc/src/pic14/gen.c:5418:genGenericShift *{*
                      03842 ;; ***  genGenericShift  5421
                      03843 ;;      694 register type nRegs=1
                      03844 ;;      694 register type nRegs=1
                      03845 ;;      694 register type nRegs=1
                      03846 ;; ***  mov2w  1381  offset=0
                      03847 ;; >>> /home/sdcc-builder/build/sdcc-build/orig/sdcc/src/pic14/gen.c:1386:mov2w
                      03848 ;;      1109 rIdx = r0x1056 
0415   08??           03849         MOVF    r0x1016,W
                      03850 ;; >>> /home/sdcc-builder/build/sdcc-build/orig/sdcc/src/pic14/gen.c:1393:movwf
                      03851 ;;      1109 rIdx = r0x1057 
0416   00??           03852         MOVWF   r0x1017
                      03853 ;; ***  addSign  861
                      03854 ;;; /home/sdcc-builder/build/sdcc-build/orig/sdcc/src/pic14/genarith.c:862:addSign *{*
                      03855 ;; ***  mov2w  1381  offset=0
                      03856 ;; >>> /home/sdcc-builder/build/sdcc-build/orig/sdcc/src/pic14/gen.c:1386:mov2w
                      03857 ;;      1109 rIdx = r0x1055 
0417   08??           03858         MOVF    r0x1015,W
                      03859 ;; >>> /home/sdcc-builder/build/sdcc-build/orig/sdcc/src/pic14/gen.c:5492:genGenericShift
0418   3C00           03860         SUBLW   0x00
                      03861 ;; >>> /home/sdcc-builder/build/sdcc-build/orig/sdcc/src/pic14/gen.c:5494:genGenericShift
0419   1903           03862         BTFSC   STATUS,2
                      03863 ;; >>> /home/sdcc-builder/build/sdcc-build/orig/sdcc/src/pic14/gen.c:5495:genGenericShift
                      03864 ;; ***  popGetLabel  key=22, label offset 56
041A   2???           03865         GOTO    _00178_DS_
                      03866 ;;; /home/sdcc-builder/build/sdcc-build/orig/sdcc/src/pic14/gen.c:5369:genMultiAsm *{*
                      03867 ;; ***  genMultiAsm  5370
                      03868 ;; >>> /home/sdcc-builder/build/sdcc-build/orig/sdcc/src/pic14/gen.c:5387:genMultiAsm
                      03869 ;;      1109 rIdx = r0x1057 
041B                  03870 _00177_DS_
041B   ???? ????      03871         BANKSEL r0x1017
041D   0D??           03872         RLF     r0x1017,F
                      03873 ;; >>> /home/sdcc-builder/build/sdcc-build/orig/sdcc/src/pic14/gen.c:5501:genGenericShift
041E   3E01           03874         ADDLW   0x01
                      03875 ;; >>> /home/sdcc-builder/build/sdcc-build/orig/sdcc/src/pic14/gen.c:5502:genGenericShift
041F   1C03           03876         BTFSS   STATUS,0
                      03877 ;; >>> /home/sdcc-builder/build/sdcc-build/orig/sdcc/src/pic14/gen.c:5503:genGenericShift
                      03878 ;; ***  popGetLabel  key=21, label offset 56
0420   2???           03879         GOTO    _00177_DS_
                      03880 ;;; /home/sdcc-builder/build/sdcc-build/orig/sdcc/src/pic14/gen.c:2316:resultRemat *{*
                      03881 ;;; /home/sdcc-builder/build/sdcc-build/orig/sdcc/src/pic14/gen.c:4220:genOr *{*
                      03882 ;; ***  genOr  4221
                      03883 ;;      694 register type nRegs=1
                      03884 ;;      694 register type nRegs=1
                      03885 ;; ***  aopForSym 315
                      03886 ;;      327 sym->rname = _PORTB, size = 1
                      03887 ;;      line = 4227 result AOP_DIR=_PORTB, size=1, left AOP_REG=r0x1054, size=1, right AOP_REG=r0x1057, 
                            size=1
                      03888 ;;      line = 4253 result AOP_DIR=_PORTB, size=1, left AOP_REG=r0x1054, size=1, right AOP_REG=r0x1057, 
gpasm-1.4.0 #1106 (Oct  6 2014) obj\Debug\gpi   8-17-2021  02:09:23         PAGE 75


LOC    OBJECT CODE    LINE  SOURCE TEXT
  VALUE

                            size=1
                      03889 ;; >>> /home/sdcc-builder/build/sdcc-build/orig/sdcc/src/pic14/gen.c:4479:genOr
                      03890 ;;      1109 rIdx = r0x1057 
0421                  03891 _00178_DS_
0421   ???? ????      03892         BANKSEL r0x1017
0423   08??           03893         MOVF    r0x1017,W
                      03894 ;; >>> /home/sdcc-builder/build/sdcc-build/orig/sdcc/src/pic14/gen.c:4480:genOr
                      03895 ;;      1109 rIdx = r0x1054 
0424   04??           03896         IORWF   r0x1014,W
                      03897 ;; >>> /home/sdcc-builder/build/sdcc-build/orig/sdcc/src/pic14/gen.c:4481:genOr
                      03898 ;;      1009
                      03899 ;;      1028  _PORTB   offset=0
0425   ???? ????      03900         BANKSEL _PORTB
0427   00??           03901         MOVWF   _PORTB
                      03902 ;;; /home/sdcc-builder/build/sdcc-build/orig/sdcc/src/pic14/gen.c:2316:resultRemat *{*
                      03903 ;;; /home/sdcc-builder/build/sdcc-build/orig/sdcc/src/pic14/gen.c:2778:genGoto *{*
                      03904 ;; >>> /home/sdcc-builder/build/sdcc-build/orig/sdcc/src/pic14/gen.c:2780:genGoto
                      03905 ;; ***  popGetLabel  key=8, label offset 56
                      03906         .line   90; "gpio.c"    break;
0428   2???           03907         GOTO    _00164_DS_
                      03908 ;;; /home/sdcc-builder/build/sdcc-build/orig/sdcc/src/pic14/gen.c:2316:resultRemat *{*
                      03909 ;;; /home/sdcc-builder/build/sdcc-build/orig/sdcc/src/pic14/gen.c:2760:genLabel *{*
                      03910 ;; ***  genLabel  2763
                      03911 ;;; /home/sdcc-builder/build/sdcc-build/orig/sdcc/src/pic14/gen.c:2316:resultRemat *{*
                      03912 ;;; /home/sdcc-builder/build/sdcc-build/orig/sdcc/src/pic14/gen.c:5418:genGenericShift *{*
                      03913 ;; ***  genGenericShift  5421
                      03914 ;;      694 register type nRegs=1
                      03915 ;;      694 register type nRegs=1
                      03916 ;; ***  mov2w  1381  offset=0
                      03917 ;; >>> /home/sdcc-builder/build/sdcc-build/orig/sdcc/src/pic14/gen.c:1384:mov2w
0429                  03918 _00159_DS_
                      03919         .line   92; "gpio.c"    SetRegisterPin(DATA_REGISTER_WRITE_PORTC,pin,state) ;
0429   3001           03920         MOVLW   0x01
                      03921 ;; >>> /home/sdcc-builder/build/sdcc-build/orig/sdcc/src/pic14/gen.c:1393:movwf
                      03922 ;;      1109 rIdx = r0x1054 
042A   ???? ????      03923         BANKSEL r0x1014
042C   00??           03924         MOVWF   r0x1014
                      03925 ;; ***  addSign  861
                      03926 ;;; /home/sdcc-builder/build/sdcc-build/orig/sdcc/src/pic14/genarith.c:862:addSign *{*
                      03927 ;; ***  mov2w  1381  offset=0
                      03928 ;; >>> /home/sdcc-builder/build/sdcc-build/orig/sdcc/src/pic14/gen.c:1386:mov2w
                      03929 ;;      1109 rIdx = r0x1055 
042D   08??           03930         MOVF    r0x1015,W
                      03931 ;; >>> /home/sdcc-builder/build/sdcc-build/orig/sdcc/src/pic14/gen.c:5492:genGenericShift
042E   3C00           03932         SUBLW   0x00
                      03933 ;; >>> /home/sdcc-builder/build/sdcc-build/orig/sdcc/src/pic14/gen.c:5494:genGenericShift
042F   1903           03934         BTFSC   STATUS,2
                      03935 ;; >>> /home/sdcc-builder/build/sdcc-build/orig/sdcc/src/pic14/gen.c:5495:genGenericShift
                      03936 ;; ***  popGetLabel  key=24, label offset 56
0430   2???           03937         GOTO    _00180_DS_
                      03938 ;;; /home/sdcc-builder/build/sdcc-build/orig/sdcc/src/pic14/gen.c:5369:genMultiAsm *{*
                      03939 ;; ***  genMultiAsm  5370
                      03940 ;; >>> /home/sdcc-builder/build/sdcc-build/orig/sdcc/src/pic14/gen.c:5387:genMultiAsm
gpasm-1.4.0 #1106 (Oct  6 2014) obj\Debug\gpi   8-17-2021  02:09:23         PAGE 76


LOC    OBJECT CODE    LINE  SOURCE TEXT
  VALUE

                      03941 ;;      1109 rIdx = r0x1054 
0431                  03942 _00179_DS_
0431   ???? ????      03943         BANKSEL r0x1014
0433   0D??           03944         RLF     r0x1014,F
                      03945 ;; >>> /home/sdcc-builder/build/sdcc-build/orig/sdcc/src/pic14/gen.c:5501:genGenericShift
0434   3E01           03946         ADDLW   0x01
                      03947 ;; >>> /home/sdcc-builder/build/sdcc-build/orig/sdcc/src/pic14/gen.c:5502:genGenericShift
0435   1C03           03948         BTFSS   STATUS,0
                      03949 ;; >>> /home/sdcc-builder/build/sdcc-build/orig/sdcc/src/pic14/gen.c:5503:genGenericShift
                      03950 ;; ***  popGetLabel  key=23, label offset 56
0436   2???           03951         GOTO    _00179_DS_
                      03952 ;;; /home/sdcc-builder/build/sdcc-build/orig/sdcc/src/pic14/gen.c:2316:resultRemat *{*
                      03953 ;;; /home/sdcc-builder/build/sdcc-build/orig/sdcc/src/pic14/gen.c:1609:genCpl *{*
                      03954 ;; ***  genCpl  1611
                      03955 ;;      694 register type nRegs=1
                      03956 ;;      694 register type nRegs=1
                      03957 ;; >>> /home/sdcc-builder/build/sdcc-build/orig/sdcc/src/pic14/gen.c:1631:genCpl
                      03958 ;;      1109 rIdx = r0x1054 
0437                  03959 _00180_DS_
0437   ???? ????      03960         BANKSEL r0x1014
0439   09??           03961         COMF    r0x1014,F
043A   ???? ????      03962         BANKSEL _PORTC
043C   08??           03963         MOVF    _PORTC,W
                      03964 ;; >>> /home/sdcc-builder/build/sdcc-build/orig/sdcc/src/pic14/gen.c:4138:genAnd
                      03965 ;;      1109 rIdx = r0x1054 
043D   ???? ????      03966         BANKSEL r0x1014
043F   05??           03967         ANDWF   r0x1014,F
                      03968 ;;; /home/sdcc-builder/build/sdcc-build/orig/sdcc/src/pic14/gen.c:2316:resultRemat *{*
                      03969 ;;; /home/sdcc-builder/build/sdcc-build/orig/sdcc/src/pic14/gen.c:5418:genGenericShift *{*
                      03970 ;; ***  genGenericShift  5421
                      03971 ;;      694 register type nRegs=1
                      03972 ;;      694 register type nRegs=1
                      03973 ;;      694 register type nRegs=1
                      03974 ;; ***  mov2w  1381  offset=0
                      03975 ;; >>> /home/sdcc-builder/build/sdcc-build/orig/sdcc/src/pic14/gen.c:1386:mov2w
                      03976 ;;      1109 rIdx = r0x1056 
0440   08??           03977         MOVF    r0x1016,W
                      03978 ;; >>> /home/sdcc-builder/build/sdcc-build/orig/sdcc/src/pic14/gen.c:1393:movwf
                      03979 ;;      1109 rIdx = r0x1057 
0441   00??           03980         MOVWF   r0x1017
                      03981 ;; ***  addSign  861
                      03982 ;;; /home/sdcc-builder/build/sdcc-build/orig/sdcc/src/pic14/genarith.c:862:addSign *{*
                      03983 ;; ***  mov2w  1381  offset=0
                      03984 ;; >>> /home/sdcc-builder/build/sdcc-build/orig/sdcc/src/pic14/gen.c:1386:mov2w
                      03985 ;;      1109 rIdx = r0x1055 
0442   08??           03986         MOVF    r0x1015,W
                      03987 ;; >>> /home/sdcc-builder/build/sdcc-build/orig/sdcc/src/pic14/gen.c:5492:genGenericShift
0443   3C00           03988         SUBLW   0x00
                      03989 ;; >>> /home/sdcc-builder/build/sdcc-build/orig/sdcc/src/pic14/gen.c:5494:genGenericShift
0444   1903           03990         BTFSC   STATUS,2
                      03991 ;; >>> /home/sdcc-builder/build/sdcc-build/orig/sdcc/src/pic14/gen.c:5495:genGenericShift
                      03992 ;; ***  popGetLabel  key=26, label offset 56
0445   2???           03993         GOTO    _00182_DS_
gpasm-1.4.0 #1106 (Oct  6 2014) obj\Debug\gpi   8-17-2021  02:09:23         PAGE 77


LOC    OBJECT CODE    LINE  SOURCE TEXT
  VALUE

                      03994 ;;; /home/sdcc-builder/build/sdcc-build/orig/sdcc/src/pic14/gen.c:5369:genMultiAsm *{*
                      03995 ;; ***  genMultiAsm  5370
                      03996 ;; >>> /home/sdcc-builder/build/sdcc-build/orig/sdcc/src/pic14/gen.c:5387:genMultiAsm
                      03997 ;;      1109 rIdx = r0x1057 
0446                  03998 _00181_DS_
0446   ???? ????      03999         BANKSEL r0x1017
0448   0D??           04000         RLF     r0x1017,F
                      04001 ;; >>> /home/sdcc-builder/build/sdcc-build/orig/sdcc/src/pic14/gen.c:5501:genGenericShift
0449   3E01           04002         ADDLW   0x01
                      04003 ;; >>> /home/sdcc-builder/build/sdcc-build/orig/sdcc/src/pic14/gen.c:5502:genGenericShift
044A   1C03           04004         BTFSS   STATUS,0
                      04005 ;; >>> /home/sdcc-builder/build/sdcc-build/orig/sdcc/src/pic14/gen.c:5503:genGenericShift
                      04006 ;; ***  popGetLabel  key=25, label offset 56
044B   2???           04007         GOTO    _00181_DS_
                      04008 ;;; /home/sdcc-builder/build/sdcc-build/orig/sdcc/src/pic14/gen.c:2316:resultRemat *{*
                      04009 ;;; /home/sdcc-builder/build/sdcc-build/orig/sdcc/src/pic14/gen.c:4220:genOr *{*
                      04010 ;; ***  genOr  4221
                      04011 ;;      694 register type nRegs=1
                      04012 ;;      694 register type nRegs=1
                      04013 ;; ***  aopForSym 315
                      04014 ;;      327 sym->rname = _PORTC, size = 1
                      04015 ;;      line = 4227 result AOP_DIR=_PORTC, size=1, left AOP_REG=r0x1054, size=1, right AOP_REG=r0x1057, 
                            size=1
                      04016 ;;      line = 4253 result AOP_DIR=_PORTC, size=1, left AOP_REG=r0x1054, size=1, right AOP_REG=r0x1057, 
                            size=1
                      04017 ;; >>> /home/sdcc-builder/build/sdcc-build/orig/sdcc/src/pic14/gen.c:4479:genOr
                      04018 ;;      1109 rIdx = r0x1057 
044C                  04019 _00182_DS_
044C   ???? ????      04020         BANKSEL r0x1017
044E   08??           04021         MOVF    r0x1017,W
                      04022 ;; >>> /home/sdcc-builder/build/sdcc-build/orig/sdcc/src/pic14/gen.c:4480:genOr
                      04023 ;;      1109 rIdx = r0x1054 
044F   04??           04024         IORWF   r0x1014,W
                      04025 ;; >>> /home/sdcc-builder/build/sdcc-build/orig/sdcc/src/pic14/gen.c:4481:genOr
                      04026 ;;      1009
                      04027 ;;      1028  _PORTC   offset=0
0450   ???? ????      04028         BANKSEL _PORTC
0452   00??           04029         MOVWF   _PORTC
                      04030 ;;; /home/sdcc-builder/build/sdcc-build/orig/sdcc/src/pic14/gen.c:2316:resultRemat *{*
                      04031 ;;; /home/sdcc-builder/build/sdcc-build/orig/sdcc/src/pic14/gen.c:2778:genGoto *{*
                      04032 ;; >>> /home/sdcc-builder/build/sdcc-build/orig/sdcc/src/pic14/gen.c:2780:genGoto
                      04033 ;; ***  popGetLabel  key=8, label offset 56
                      04034         .line   93; "gpio.c"    break;
0453   2???           04035         GOTO    _00164_DS_
                      04036 ;;; /home/sdcc-builder/build/sdcc-build/orig/sdcc/src/pic14/gen.c:2316:resultRemat *{*
                      04037 ;;; /home/sdcc-builder/build/sdcc-build/orig/sdcc/src/pic14/gen.c:2760:genLabel *{*
                      04038 ;; ***  genLabel  2763
                      04039 ;;; /home/sdcc-builder/build/sdcc-build/orig/sdcc/src/pic14/gen.c:2316:resultRemat *{*
                      04040 ;;; /home/sdcc-builder/build/sdcc-build/orig/sdcc/src/pic14/gen.c:5418:genGenericShift *{*
                      04041 ;; ***  genGenericShift  5421
                      04042 ;;      694 register type nRegs=1
                      04043 ;;      694 register type nRegs=1
                      04044 ;; ***  mov2w  1381  offset=0
gpasm-1.4.0 #1106 (Oct  6 2014) obj\Debug\gpi   8-17-2021  02:09:23         PAGE 78


LOC    OBJECT CODE    LINE  SOURCE TEXT
  VALUE

                      04045 ;; >>> /home/sdcc-builder/build/sdcc-build/orig/sdcc/src/pic14/gen.c:1384:mov2w
0454                  04046 _00160_DS_
                      04047         .line   95; "gpio.c"    SetRegisterPin(DATA_REGISTER_WRITE_PORTD,pin,state) ;
0454   3001           04048         MOVLW   0x01
                      04049 ;; >>> /home/sdcc-builder/build/sdcc-build/orig/sdcc/src/pic14/gen.c:1393:movwf
                      04050 ;;      1109 rIdx = r0x1054 
0455   ???? ????      04051         BANKSEL r0x1014
0457   00??           04052         MOVWF   r0x1014
                      04053 ;; ***  addSign  861
                      04054 ;;; /home/sdcc-builder/build/sdcc-build/orig/sdcc/src/pic14/genarith.c:862:addSign *{*
                      04055 ;; ***  mov2w  1381  offset=0
                      04056 ;; >>> /home/sdcc-builder/build/sdcc-build/orig/sdcc/src/pic14/gen.c:1386:mov2w
                      04057 ;;      1109 rIdx = r0x1055 
0458   08??           04058         MOVF    r0x1015,W
                      04059 ;; >>> /home/sdcc-builder/build/sdcc-build/orig/sdcc/src/pic14/gen.c:5492:genGenericShift
0459   3C00           04060         SUBLW   0x00
                      04061 ;; >>> /home/sdcc-builder/build/sdcc-build/orig/sdcc/src/pic14/gen.c:5494:genGenericShift
045A   1903           04062         BTFSC   STATUS,2
                      04063 ;; >>> /home/sdcc-builder/build/sdcc-build/orig/sdcc/src/pic14/gen.c:5495:genGenericShift
                      04064 ;; ***  popGetLabel  key=28, label offset 56
045B   2???           04065         GOTO    _00184_DS_
                      04066 ;;; /home/sdcc-builder/build/sdcc-build/orig/sdcc/src/pic14/gen.c:5369:genMultiAsm *{*
                      04067 ;; ***  genMultiAsm  5370
                      04068 ;; >>> /home/sdcc-builder/build/sdcc-build/orig/sdcc/src/pic14/gen.c:5387:genMultiAsm
                      04069 ;;      1109 rIdx = r0x1054 
045C                  04070 _00183_DS_
045C   ???? ????      04071         BANKSEL r0x1014
045E   0D??           04072         RLF     r0x1014,F
                      04073 ;; >>> /home/sdcc-builder/build/sdcc-build/orig/sdcc/src/pic14/gen.c:5501:genGenericShift
045F   3E01           04074         ADDLW   0x01
                      04075 ;; >>> /home/sdcc-builder/build/sdcc-build/orig/sdcc/src/pic14/gen.c:5502:genGenericShift
0460   1C03           04076         BTFSS   STATUS,0
                      04077 ;; >>> /home/sdcc-builder/build/sdcc-build/orig/sdcc/src/pic14/gen.c:5503:genGenericShift
                      04078 ;; ***  popGetLabel  key=27, label offset 56
0461   2???           04079         GOTO    _00183_DS_
                      04080 ;;; /home/sdcc-builder/build/sdcc-build/orig/sdcc/src/pic14/gen.c:2316:resultRemat *{*
                      04081 ;;; /home/sdcc-builder/build/sdcc-build/orig/sdcc/src/pic14/gen.c:1609:genCpl *{*
                      04082 ;; ***  genCpl  1611
                      04083 ;;      694 register type nRegs=1
                      04084 ;;      694 register type nRegs=1
                      04085 ;; >>> /home/sdcc-builder/build/sdcc-build/orig/sdcc/src/pic14/gen.c:1631:genCpl
                      04086 ;;      1109 rIdx = r0x1054 
0462                  04087 _00184_DS_
0462   ???? ????      04088         BANKSEL r0x1014
0464   09??           04089         COMF    r0x1014,F
0465   ???? ????      04090         BANKSEL _PORTD
0467   08??           04091         MOVF    _PORTD,W
                      04092 ;; >>> /home/sdcc-builder/build/sdcc-build/orig/sdcc/src/pic14/gen.c:4138:genAnd
                      04093 ;;      1109 rIdx = r0x1054 
0468   ???? ????      04094         BANKSEL r0x1014
046A   05??           04095         ANDWF   r0x1014,F
                      04096 ;;; /home/sdcc-builder/build/sdcc-build/orig/sdcc/src/pic14/gen.c:2316:resultRemat *{*
                      04097 ;;; /home/sdcc-builder/build/sdcc-build/orig/sdcc/src/pic14/gen.c:5418:genGenericShift *{*
gpasm-1.4.0 #1106 (Oct  6 2014) obj\Debug\gpi   8-17-2021  02:09:23         PAGE 79


LOC    OBJECT CODE    LINE  SOURCE TEXT
  VALUE

                      04098 ;; ***  genGenericShift  5421
                      04099 ;;      694 register type nRegs=1
                      04100 ;;      694 register type nRegs=1
                      04101 ;;      694 register type nRegs=1
                      04102 ;; ***  mov2w  1381  offset=0
                      04103 ;; >>> /home/sdcc-builder/build/sdcc-build/orig/sdcc/src/pic14/gen.c:1386:mov2w
                      04104 ;;      1109 rIdx = r0x1056 
046B   08??           04105         MOVF    r0x1016,W
                      04106 ;; >>> /home/sdcc-builder/build/sdcc-build/orig/sdcc/src/pic14/gen.c:1393:movwf
                      04107 ;;      1109 rIdx = r0x1057 
046C   00??           04108         MOVWF   r0x1017
                      04109 ;; ***  addSign  861
                      04110 ;;; /home/sdcc-builder/build/sdcc-build/orig/sdcc/src/pic14/genarith.c:862:addSign *{*
                      04111 ;; ***  mov2w  1381  offset=0
                      04112 ;; >>> /home/sdcc-builder/build/sdcc-build/orig/sdcc/src/pic14/gen.c:1386:mov2w
                      04113 ;;      1109 rIdx = r0x1055 
046D   08??           04114         MOVF    r0x1015,W
                      04115 ;; >>> /home/sdcc-builder/build/sdcc-build/orig/sdcc/src/pic14/gen.c:5492:genGenericShift
046E   3C00           04116         SUBLW   0x00
                      04117 ;; >>> /home/sdcc-builder/build/sdcc-build/orig/sdcc/src/pic14/gen.c:5494:genGenericShift
046F   1903           04118         BTFSC   STATUS,2
                      04119 ;; >>> /home/sdcc-builder/build/sdcc-build/orig/sdcc/src/pic14/gen.c:5495:genGenericShift
                      04120 ;; ***  popGetLabel  key=30, label offset 56
0470   2???           04121         GOTO    _00186_DS_
                      04122 ;;; /home/sdcc-builder/build/sdcc-build/orig/sdcc/src/pic14/gen.c:5369:genMultiAsm *{*
                      04123 ;; ***  genMultiAsm  5370
                      04124 ;; >>> /home/sdcc-builder/build/sdcc-build/orig/sdcc/src/pic14/gen.c:5387:genMultiAsm
                      04125 ;;      1109 rIdx = r0x1057 
0471                  04126 _00185_DS_
0471   ???? ????      04127         BANKSEL r0x1017
0473   0D??           04128         RLF     r0x1017,F
                      04129 ;; >>> /home/sdcc-builder/build/sdcc-build/orig/sdcc/src/pic14/gen.c:5501:genGenericShift
0474   3E01           04130         ADDLW   0x01
                      04131 ;; >>> /home/sdcc-builder/build/sdcc-build/orig/sdcc/src/pic14/gen.c:5502:genGenericShift
0475   1C03           04132         BTFSS   STATUS,0
                      04133 ;; >>> /home/sdcc-builder/build/sdcc-build/orig/sdcc/src/pic14/gen.c:5503:genGenericShift
                      04134 ;; ***  popGetLabel  key=29, label offset 56
0476   2???           04135         GOTO    _00185_DS_
                      04136 ;;; /home/sdcc-builder/build/sdcc-build/orig/sdcc/src/pic14/gen.c:2316:resultRemat *{*
                      04137 ;;; /home/sdcc-builder/build/sdcc-build/orig/sdcc/src/pic14/gen.c:4220:genOr *{*
                      04138 ;; ***  genOr  4221
                      04139 ;;      694 register type nRegs=1
                      04140 ;;      694 register type nRegs=1
                      04141 ;; ***  aopForSym 315
                      04142 ;;      327 sym->rname = _PORTD, size = 1
                      04143 ;;      line = 4227 result AOP_DIR=_PORTD, size=1, left AOP_REG=r0x1054, size=1, right AOP_REG=r0x1057, 
                            size=1
                      04144 ;;      line = 4253 result AOP_DIR=_PORTD, size=1, left AOP_REG=r0x1054, size=1, right AOP_REG=r0x1057, 
                            size=1
                      04145 ;; >>> /home/sdcc-builder/build/sdcc-build/orig/sdcc/src/pic14/gen.c:4479:genOr
                      04146 ;;      1109 rIdx = r0x1057 
0477                  04147 _00186_DS_
0477   ???? ????      04148         BANKSEL r0x1017
gpasm-1.4.0 #1106 (Oct  6 2014) obj\Debug\gpi   8-17-2021  02:09:23         PAGE 80


LOC    OBJECT CODE    LINE  SOURCE TEXT
  VALUE

0479   08??           04149         MOVF    r0x1017,W
                      04150 ;; >>> /home/sdcc-builder/build/sdcc-build/orig/sdcc/src/pic14/gen.c:4480:genOr
                      04151 ;;      1109 rIdx = r0x1054 
047A   04??           04152         IORWF   r0x1014,W
                      04153 ;; >>> /home/sdcc-builder/build/sdcc-build/orig/sdcc/src/pic14/gen.c:4481:genOr
                      04154 ;;      1009
                      04155 ;;      1028  _PORTD   offset=0
047B   ???? ????      04156         BANKSEL _PORTD
047D   00??           04157         MOVWF   _PORTD
                      04158 ;;; /home/sdcc-builder/build/sdcc-build/orig/sdcc/src/pic14/gen.c:2316:resultRemat *{*
                      04159 ;;; /home/sdcc-builder/build/sdcc-build/orig/sdcc/src/pic14/gen.c:2778:genGoto *{*
                      04160 ;; >>> /home/sdcc-builder/build/sdcc-build/orig/sdcc/src/pic14/gen.c:2780:genGoto
                      04161 ;; ***  popGetLabel  key=8, label offset 56
                      04162         .line   96; "gpio.c"    break;
047E   2???           04163         GOTO    _00164_DS_
                      04164 ;;; /home/sdcc-builder/build/sdcc-build/orig/sdcc/src/pic14/gen.c:2316:resultRemat *{*
                      04165 ;;; /home/sdcc-builder/build/sdcc-build/orig/sdcc/src/pic14/gen.c:2760:genLabel *{*
                      04166 ;; ***  genLabel  2763
                      04167 ;;; /home/sdcc-builder/build/sdcc-build/orig/sdcc/src/pic14/gen.c:2316:resultRemat *{*
                      04168 ;;; /home/sdcc-builder/build/sdcc-build/orig/sdcc/src/pic14/gen.c:5418:genGenericShift *{*
                      04169 ;; ***  genGenericShift  5421
                      04170 ;;      694 register type nRegs=1
                      04171 ;;      694 register type nRegs=1
                      04172 ;; ***  mov2w  1381  offset=0
                      04173 ;; >>> /home/sdcc-builder/build/sdcc-build/orig/sdcc/src/pic14/gen.c:1384:mov2w
047F                  04174 _00161_DS_
                      04175         .line   98; "gpio.c"    SetRegisterPin(DATA_REGISTER_WRITE_PORTE,pin,state) ;
047F   3001           04176         MOVLW   0x01
                      04177 ;; >>> /home/sdcc-builder/build/sdcc-build/orig/sdcc/src/pic14/gen.c:1393:movwf
                      04178 ;;      1109 rIdx = r0x1054 
0480   ???? ????      04179         BANKSEL r0x1014
0482   00??           04180         MOVWF   r0x1014
                      04181 ;; ***  addSign  861
                      04182 ;;; /home/sdcc-builder/build/sdcc-build/orig/sdcc/src/pic14/genarith.c:862:addSign *{*
                      04183 ;; ***  mov2w  1381  offset=0
                      04184 ;; >>> /home/sdcc-builder/build/sdcc-build/orig/sdcc/src/pic14/gen.c:1386:mov2w
                      04185 ;;      1109 rIdx = r0x1055 
0483   08??           04186         MOVF    r0x1015,W
                      04187 ;; >>> /home/sdcc-builder/build/sdcc-build/orig/sdcc/src/pic14/gen.c:5492:genGenericShift
0484   3C00           04188         SUBLW   0x00
                      04189 ;; >>> /home/sdcc-builder/build/sdcc-build/orig/sdcc/src/pic14/gen.c:5494:genGenericShift
0485   1903           04190         BTFSC   STATUS,2
                      04191 ;; >>> /home/sdcc-builder/build/sdcc-build/orig/sdcc/src/pic14/gen.c:5495:genGenericShift
                      04192 ;; ***  popGetLabel  key=32, label offset 56
0486   2???           04193         GOTO    _00188_DS_
                      04194 ;;; /home/sdcc-builder/build/sdcc-build/orig/sdcc/src/pic14/gen.c:5369:genMultiAsm *{*
                      04195 ;; ***  genMultiAsm  5370
                      04196 ;; >>> /home/sdcc-builder/build/sdcc-build/orig/sdcc/src/pic14/gen.c:5387:genMultiAsm
                      04197 ;;      1109 rIdx = r0x1054 
0487                  04198 _00187_DS_
0487   ???? ????      04199         BANKSEL r0x1014
0489   0D??           04200         RLF     r0x1014,F
                      04201 ;; >>> /home/sdcc-builder/build/sdcc-build/orig/sdcc/src/pic14/gen.c:5501:genGenericShift
gpasm-1.4.0 #1106 (Oct  6 2014) obj\Debug\gpi   8-17-2021  02:09:23         PAGE 81


LOC    OBJECT CODE    LINE  SOURCE TEXT
  VALUE

048A   3E01           04202         ADDLW   0x01
                      04203 ;; >>> /home/sdcc-builder/build/sdcc-build/orig/sdcc/src/pic14/gen.c:5502:genGenericShift
048B   1C03           04204         BTFSS   STATUS,0
                      04205 ;; >>> /home/sdcc-builder/build/sdcc-build/orig/sdcc/src/pic14/gen.c:5503:genGenericShift
                      04206 ;; ***  popGetLabel  key=31, label offset 56
048C   2???           04207         GOTO    _00187_DS_
                      04208 ;;; /home/sdcc-builder/build/sdcc-build/orig/sdcc/src/pic14/gen.c:2316:resultRemat *{*
                      04209 ;;; /home/sdcc-builder/build/sdcc-build/orig/sdcc/src/pic14/gen.c:1609:genCpl *{*
                      04210 ;; ***  genCpl  1611
                      04211 ;;      694 register type nRegs=1
                      04212 ;;      694 register type nRegs=1
                      04213 ;; >>> /home/sdcc-builder/build/sdcc-build/orig/sdcc/src/pic14/gen.c:1631:genCpl
                      04214 ;;      1109 rIdx = r0x1054 
048D                  04215 _00188_DS_
048D   ???? ????      04216         BANKSEL r0x1014
048F   09??           04217         COMF    r0x1014,F
0490   ???? ????      04218         BANKSEL _PORTE
0492   08??           04219         MOVF    _PORTE,W
                      04220 ;; >>> /home/sdcc-builder/build/sdcc-build/orig/sdcc/src/pic14/gen.c:4138:genAnd
                      04221 ;;      1109 rIdx = r0x1054 
0493   ???? ????      04222         BANKSEL r0x1014
0495   05??           04223         ANDWF   r0x1014,F
                      04224 ;;; /home/sdcc-builder/build/sdcc-build/orig/sdcc/src/pic14/gen.c:2316:resultRemat *{*
                      04225 ;;; /home/sdcc-builder/build/sdcc-build/orig/sdcc/src/pic14/gen.c:5418:genGenericShift *{*
                      04226 ;; ***  genGenericShift  5421
                      04227 ;;      694 register type nRegs=1
                      04228 ;;      694 register type nRegs=1
                      04229 ;;      694 register type nRegs=1
                      04230 ;; ***  mov2w  1381  offset=0
                      04231 ;; >>> /home/sdcc-builder/build/sdcc-build/orig/sdcc/src/pic14/gen.c:1386:mov2w
                      04232 ;;      1109 rIdx = r0x1056 
0496   08??           04233         MOVF    r0x1016,W
                      04234 ;; >>> /home/sdcc-builder/build/sdcc-build/orig/sdcc/src/pic14/gen.c:1393:movwf
                      04235 ;;      1109 rIdx = r0x1057 
0497   00??           04236         MOVWF   r0x1017
                      04237 ;; ***  addSign  861
                      04238 ;;; /home/sdcc-builder/build/sdcc-build/orig/sdcc/src/pic14/genarith.c:862:addSign *{*
                      04239 ;; ***  mov2w  1381  offset=0
                      04240 ;; >>> /home/sdcc-builder/build/sdcc-build/orig/sdcc/src/pic14/gen.c:1386:mov2w
                      04241 ;;      1109 rIdx = r0x1055 
0498   08??           04242         MOVF    r0x1015,W
                      04243 ;; >>> /home/sdcc-builder/build/sdcc-build/orig/sdcc/src/pic14/gen.c:5492:genGenericShift
0499   3C00           04244         SUBLW   0x00
                      04245 ;; >>> /home/sdcc-builder/build/sdcc-build/orig/sdcc/src/pic14/gen.c:5494:genGenericShift
049A   1903           04246         BTFSC   STATUS,2
                      04247 ;; >>> /home/sdcc-builder/build/sdcc-build/orig/sdcc/src/pic14/gen.c:5495:genGenericShift
                      04248 ;; ***  popGetLabel  key=34, label offset 56
049B   2???           04249         GOTO    _00190_DS_
                      04250 ;;; /home/sdcc-builder/build/sdcc-build/orig/sdcc/src/pic14/gen.c:5369:genMultiAsm *{*
                      04251 ;; ***  genMultiAsm  5370
                      04252 ;; >>> /home/sdcc-builder/build/sdcc-build/orig/sdcc/src/pic14/gen.c:5387:genMultiAsm
                      04253 ;;      1109 rIdx = r0x1057 
049C                  04254 _00189_DS_
gpasm-1.4.0 #1106 (Oct  6 2014) obj\Debug\gpi   8-17-2021  02:09:23         PAGE 82


LOC    OBJECT CODE    LINE  SOURCE TEXT
  VALUE

049C   ???? ????      04255         BANKSEL r0x1017
049E   0D??           04256         RLF     r0x1017,F
                      04257 ;; >>> /home/sdcc-builder/build/sdcc-build/orig/sdcc/src/pic14/gen.c:5501:genGenericShift
049F   3E01           04258         ADDLW   0x01
                      04259 ;; >>> /home/sdcc-builder/build/sdcc-build/orig/sdcc/src/pic14/gen.c:5502:genGenericShift
04A0   1C03           04260         BTFSS   STATUS,0
                      04261 ;; >>> /home/sdcc-builder/build/sdcc-build/orig/sdcc/src/pic14/gen.c:5503:genGenericShift
                      04262 ;; ***  popGetLabel  key=33, label offset 56
04A1   2???           04263         GOTO    _00189_DS_
                      04264 ;;; /home/sdcc-builder/build/sdcc-build/orig/sdcc/src/pic14/gen.c:2316:resultRemat *{*
                      04265 ;;; /home/sdcc-builder/build/sdcc-build/orig/sdcc/src/pic14/gen.c:4220:genOr *{*
                      04266 ;; ***  genOr  4221
                      04267 ;;      694 register type nRegs=1
                      04268 ;;      694 register type nRegs=1
                      04269 ;; ***  aopForSym 315
                      04270 ;;      327 sym->rname = _PORTE, size = 1
                      04271 ;;      line = 4227 result AOP_DIR=_PORTE, size=1, left AOP_REG=r0x1054, size=1, right AOP_REG=r0x1057, 
                            size=1
                      04272 ;;      line = 4253 result AOP_DIR=_PORTE, size=1, left AOP_REG=r0x1054, size=1, right AOP_REG=r0x1057, 
                            size=1
                      04273 ;; >>> /home/sdcc-builder/build/sdcc-build/orig/sdcc/src/pic14/gen.c:4479:genOr
                      04274 ;;      1109 rIdx = r0x1057 
04A2                  04275 _00190_DS_
04A2   ???? ????      04276         BANKSEL r0x1017
04A4   08??           04277         MOVF    r0x1017,W
                      04278 ;; >>> /home/sdcc-builder/build/sdcc-build/orig/sdcc/src/pic14/gen.c:4480:genOr
                      04279 ;;      1109 rIdx = r0x1054 
04A5   04??           04280         IORWF   r0x1014,W
                      04281 ;; >>> /home/sdcc-builder/build/sdcc-build/orig/sdcc/src/pic14/gen.c:4481:genOr
                      04282 ;;      1009
                      04283 ;;      1028  _PORTE   offset=0
04A6   ???? ????      04284         BANKSEL _PORTE
04A8   00??           04285         MOVWF   _PORTE
                      04286 ;;; /home/sdcc-builder/build/sdcc-build/orig/sdcc/src/pic14/gen.c:2316:resultRemat *{*
                      04287 ;;; /home/sdcc-builder/build/sdcc-build/orig/sdcc/src/pic14/gen.c:2760:genLabel *{*
                      04288 ;; ***  genLabel  2763
                      04289 ;;; /home/sdcc-builder/build/sdcc-build/orig/sdcc/src/pic14/gen.c:2316:resultRemat *{*
                      04290 ;;; /home/sdcc-builder/build/sdcc-build/orig/sdcc/src/pic14/gen.c:2528:genEndFunction *{*
                      04291 ;; ***  genEndFunction  2530
04A9                  04292 _00164_DS_
                      04293         .line   103; "gpio.c"   }
04A9   0008           04294         RETURN  
                      04295 ; exit point of _GPIO_SetPinState
                      04296 ;;; /home/sdcc-builder/build/sdcc-build/orig/sdcc/src/pic14/gen.c:7426:genpic14Code *{*
                      04297 
                      04298 ;***
                      04299 ;  pBlock Stats: dbName = C
                      04300 ;***
                      04301 ;entry:  _GPIO_SetPortDirection ;Function start
                      04302 ; 2 exit points
                      04303 ;has an exit
                      04304 ;3 compiler assigned registers:
                      04305 ;   r0x1018
gpasm-1.4.0 #1106 (Oct  6 2014) obj\Debug\gpi   8-17-2021  02:09:23         PAGE 83


LOC    OBJECT CODE    LINE  SOURCE TEXT
  VALUE

                      04306 ;   STK00
                      04307 ;   r0x1019
                      04308 ;; Starting pCode block
                      04309 ;;; /home/sdcc-builder/build/sdcc-build/orig/sdcc/src/pic14/gen.c:2316:resultRemat *{*
                      04310 ;;; /home/sdcc-builder/build/sdcc-build/orig/sdcc/src/pic14/gen.c:2760:genLabel *{*
                      04311 ;; ***  genLabel  2763
                      04312 ;;; /home/sdcc-builder/build/sdcc-build/orig/sdcc/src/pic14/gen.c:2316:resultRemat *{*
                      04313 ;;; /home/sdcc-builder/build/sdcc-build/orig/sdcc/src/pic14/gen.c:2340:genFunction *{*
                      04314 ;; ***  genFunction  2342 curr label offset=20previous max_key=14 
04AA                  04315 _GPIO_SetPortDirection  ;Function start
                      04316 ; 2 exit points
                      04317 ;;; /home/sdcc-builder/build/sdcc-build/orig/sdcc/src/pic14/gen.c:2316:resultRemat *{*
                      04318 ;;; /home/sdcc-builder/build/sdcc-build/orig/sdcc/src/pic14/gen.c:7358:genReceive *{*
                      04319 ;; ***  genReceive  7359
                      04320 ;;      694 register type nRegs=1
                      04321 ;;; /home/sdcc-builder/build/sdcc-build/orig/sdcc/src/pic14/gen.c:1907:assignResultValue *{*
                      04322 ;; ***  assignResultValue  1909
                      04323 ;;      line = 1911 result -=-, size=0, left AOP_REG=r0x1052, size=1, right -=-, size=0
                      04324 ;; >>> /home/sdcc-builder/build/sdcc-build/orig/sdcc/src/pic14/gen.c:1393:movwf
                      04325 ;;      1109 rIdx = r0x1052 
                      04326         .line   57; "gpio.c"    void GPIO_SetPortDirection(tPORT port,U8 direction)
04AA   ???? ????      04327         BANKSEL r0x1018
04AC   00??           04328         MOVWF   r0x1018
                      04329 ;;; /home/sdcc-builder/build/sdcc-build/orig/sdcc/src/pic14/gen.c:2316:resultRemat *{*
                      04330 ;;; /home/sdcc-builder/build/sdcc-build/orig/sdcc/src/pic14/gen.c:7358:genReceive *{*
                      04331 ;; ***  genReceive  7359
                      04332 ;;      694 register type nRegs=1
                      04333 ;;; /home/sdcc-builder/build/sdcc-build/orig/sdcc/src/pic14/gen.c:1907:assignResultValue *{*
                      04334 ;; ***  assignResultValue  1909
                      04335 ;;      line = 1911 result -=-, size=0, left AOP_REG=r0x1053, size=1, right -=-, size=0
                      04336 ;; >>> /home/sdcc-builder/build/sdcc-build/orig/sdcc/src/pic14/gen.c:1423:get_returnvalue
                      04337 ;; ***  popRegFromIdx,1042  , rIdx=0x7f
04AD   08??           04338         MOVF    STK00,W
                      04339 ;; >>> /home/sdcc-builder/build/sdcc-build/orig/sdcc/src/pic14/gen.c:1393:movwf
                      04340 ;;      1109 rIdx = r0x1053 
04AE   00??           04341         MOVWF   r0x1019
                      04342 ;;; /home/sdcc-builder/build/sdcc-build/orig/sdcc/src/pic14/gen.c:2316:resultRemat *{*
                      04343 ;;; /home/sdcc-builder/build/sdcc-build/orig/sdcc/src/pic14/gen.c:3547:genCmpGt *{*
                      04344 ;; ***  genCmpGt  3548
                      04345 ;;      694 register type nRegs=1
                      04346 ;;; /home/sdcc-builder/build/sdcc-build/orig/sdcc/src/pic14/gen.c:3294:genCmp *{*
                      04347 ;;swapping arguments (AOP_TYPEs 1/2)
                      04348 ;;unsigned compare: left >= lit(0x5=5), size=1
                      04349 ;; >>> /home/sdcc-builder/build/sdcc-build/orig/sdcc/src/pic14/gen.c:3265:pic14_mov2w_regOrLit
                      04350         .line   59; "gpio.c"    switch(port)
04AF   3005           04351         MOVLW   0x05
                      04352 ;; >>> /home/sdcc-builder/build/sdcc-build/orig/sdcc/src/pic14/gen.c:3432:genCmp
                      04353 ;;      1109 rIdx = r0x1052 
04B0   02??           04354         SUBWF   r0x1018,W
                      04355 ;;; /home/sdcc-builder/build/sdcc-build/orig/sdcc/src/pic14/gen.c:3237:genSkipc *{*
                      04356 ;; >>> /home/sdcc-builder/build/sdcc-build/orig/sdcc/src/pic14/gen.c:3242:genSkipc
04B1   1803           04357         BTFSC   STATUS,0
                      04358 ;; >>> /home/sdcc-builder/build/sdcc-build/orig/sdcc/src/pic14/gen.c:3246:genSkipc
gpasm-1.4.0 #1106 (Oct  6 2014) obj\Debug\gpi   8-17-2021  02:09:23         PAGE 84


LOC    OBJECT CODE    LINE  SOURCE TEXT
  VALUE

                      04359 ;; ***  popGetLabel  key=8, label offset 38
04B2   2???           04360         GOTO    _00146_DS_
                      04361 ;;genSkipc:3247: created from rifx:027A5DF4
                      04362 ;;; /home/sdcc-builder/build/sdcc-build/orig/sdcc/src/pic14/gen.c:2316:resultRemat *{*
                      04363 ;;; /home/sdcc-builder/build/sdcc-build/orig/sdcc/src/pic14/gen.c:2316:resultRemat *{*
                      04364 ;;; /home/sdcc-builder/build/sdcc-build/orig/sdcc/src/pic14/gen.c:7071:genJumpTab *{*
                      04365 ;; ***  genJumpTab  7072
                      04366 ;;      694 register type nRegs=1
                      04367 ;; >>> /home/sdcc-builder/build/sdcc-build/orig/sdcc/src/pic14/gen.c:7087:genJumpTab
                      04368 ;; ***  popGetLabel  key=14, label offset 38
04B3   30??           04369         MOVLW   HIGH(_00152_DS_)
                      04370 ;; >>> /home/sdcc-builder/build/sdcc-build/orig/sdcc/src/pic14/gen.c:7088:genJumpTab
04B4   1283 1303      04371         BANKSEL PCLATH
04B6   008A           04372         MOVWF   PCLATH
                      04373 ;; >>> /home/sdcc-builder/build/sdcc-build/orig/sdcc/src/pic14/gen.c:7089:genJumpTab
                      04374 ;; ***  popGetLabel  key=14, label offset 38
04B7   30??           04375         MOVLW   _00152_DS_
                      04376 ;; >>> /home/sdcc-builder/build/sdcc-build/orig/sdcc/src/pic14/gen.c:7090:genJumpTab
                      04377 ;;      1109 rIdx = r0x1052 
04B8   ???? ????      04378         BANKSEL r0x1018
04BA   07??           04379         ADDWF   r0x1018,W
                      04380 ;; >>> /home/sdcc-builder/build/sdcc-build/orig/sdcc/src/pic14/gen.c:7091:genJumpTab
04BB   1C03           04381         BTFSS   STATUS,0
04BC   2???           04382         GOTO    _00007_DS_
                      04383 ;; >>> /home/sdcc-builder/build/sdcc-build/orig/sdcc/src/pic14/gen.c:7092:genJumpTab
04BD   1283 1303      04384         BANKSEL PCLATH
04BF   0A8A           04385         INCF    PCLATH,F
                      04386 ;; >>> /home/sdcc-builder/build/sdcc-build/orig/sdcc/src/pic14/gen.c:7093:genJumpTab
04C0                  04387 _00007_DS_
04C0   0082           04388         MOVWF   PCL
                      04389 ;; >>> /home/sdcc-builder/build/sdcc-build/orig/sdcc/src/pic14/gen.c:7102:genJumpTab
                      04390 ;; ***  popGetLabel  key=1, label offset 38
04C1                  04391 _00152_DS_
04C1   2???           04392         GOTO    _00139_DS_
                      04393 ;; >>> /home/sdcc-builder/build/sdcc-build/orig/sdcc/src/pic14/gen.c:7102:genJumpTab
                      04394 ;; ***  popGetLabel  key=2, label offset 38
04C2   2???           04395         GOTO    _00140_DS_
                      04396 ;; >>> /home/sdcc-builder/build/sdcc-build/orig/sdcc/src/pic14/gen.c:7102:genJumpTab
                      04397 ;; ***  popGetLabel  key=3, label offset 38
04C3   2???           04398         GOTO    _00141_DS_
                      04399 ;; >>> /home/sdcc-builder/build/sdcc-build/orig/sdcc/src/pic14/gen.c:7102:genJumpTab
                      04400 ;; ***  popGetLabel  key=4, label offset 38
04C4   2???           04401         GOTO    _00142_DS_
                      04402 ;; >>> /home/sdcc-builder/build/sdcc-build/orig/sdcc/src/pic14/gen.c:7102:genJumpTab
                      04403 ;; ***  popGetLabel  key=5, label offset 38
04C5   2???           04404         GOTO    _00143_DS_
                      04405 ;;; /home/sdcc-builder/build/sdcc-build/orig/sdcc/src/pic14/gen.c:2316:resultRemat *{*
                      04406 ;;; /home/sdcc-builder/build/sdcc-build/orig/sdcc/src/pic14/gen.c:2760:genLabel *{*
                      04407 ;; ***  genLabel  2763
                      04408 ;;; /home/sdcc-builder/build/sdcc-build/orig/sdcc/src/pic14/gen.c:2316:resultRemat *{*
                      04409 ;;; /home/sdcc-builder/build/sdcc-build/orig/sdcc/src/pic14/gen.c:6927:genAssign *{*
                      04410 ;; ***  genAssign  6928
                      04411 ;;      694 register type nRegs=1
gpasm-1.4.0 #1106 (Oct  6 2014) obj\Debug\gpi   8-17-2021  02:09:23         PAGE 85


LOC    OBJECT CODE    LINE  SOURCE TEXT
  VALUE

                      04412 ;; ***  aopForSym 315
                      04413 ;;      327 sym->rname = _TRISA, size = 1
                      04414 ;;      line = 6937 result AOP_DIR=_TRISA, size=1, left -=-, size=0, right AOP_REG=r0x1053, size=1
                      04415 ;; ***  genAssign  7023
                      04416 ;;; /home/sdcc-builder/build/sdcc-build/orig/sdcc/src/pic14/gen.c:1343:mov2w_op *{*
                      04417 ;; ***  mov2w  1381  offset=0
                      04418 ;; >>> /home/sdcc-builder/build/sdcc-build/orig/sdcc/src/pic14/gen.c:1386:mov2w
                      04419 ;;      1109 rIdx = r0x1053 
04C6                  04420 _00139_DS_
                      04421         .line   62; "gpio.c"    SetRegister(DIRECTION_REGISTER_PORTA,direction) ;
04C6   ???? ????      04422         BANKSEL r0x1019
04C8   08??           04423         MOVF    r0x1019,W
                      04424 ;; >>> /home/sdcc-builder/build/sdcc-build/orig/sdcc/src/pic14/gen.c:7050:genAssign
                      04425 ;;      1009
                      04426 ;;      1028  _TRISA   offset=0
04C9   ???? ????      04427         BANKSEL _TRISA
04CB   00??           04428         MOVWF   _TRISA
                      04429 ;;; /home/sdcc-builder/build/sdcc-build/orig/sdcc/src/pic14/gen.c:2316:resultRemat *{*
                      04430 ;;; /home/sdcc-builder/build/sdcc-build/orig/sdcc/src/pic14/gen.c:2778:genGoto *{*
                      04431 ;; >>> /home/sdcc-builder/build/sdcc-build/orig/sdcc/src/pic14/gen.c:2780:genGoto
                      04432 ;; ***  popGetLabel  key=8, label offset 38
                      04433         .line   63; "gpio.c"    break;
04CC   2???           04434         GOTO    _00146_DS_
                      04435 ;;; /home/sdcc-builder/build/sdcc-build/orig/sdcc/src/pic14/gen.c:2316:resultRemat *{*
                      04436 ;;; /home/sdcc-builder/build/sdcc-build/orig/sdcc/src/pic14/gen.c:2760:genLabel *{*
                      04437 ;; ***  genLabel  2763
                      04438 ;;; /home/sdcc-builder/build/sdcc-build/orig/sdcc/src/pic14/gen.c:2316:resultRemat *{*
                      04439 ;;; /home/sdcc-builder/build/sdcc-build/orig/sdcc/src/pic14/gen.c:6927:genAssign *{*
                      04440 ;; ***  genAssign  6928
                      04441 ;;      694 register type nRegs=1
                      04442 ;; ***  aopForSym 315
                      04443 ;;      327 sym->rname = _TRISB, size = 1
                      04444 ;;      line = 6937 result AOP_DIR=_TRISB, size=1, left -=-, size=0, right AOP_REG=r0x1053, size=1
                      04445 ;; ***  genAssign  7023
                      04446 ;;; /home/sdcc-builder/build/sdcc-build/orig/sdcc/src/pic14/gen.c:1343:mov2w_op *{*
                      04447 ;; ***  mov2w  1381  offset=0
                      04448 ;; >>> /home/sdcc-builder/build/sdcc-build/orig/sdcc/src/pic14/gen.c:1386:mov2w
                      04449 ;;      1109 rIdx = r0x1053 
04CD                  04450 _00140_DS_
                      04451         .line   65; "gpio.c"    SetRegister(DIRECTION_REGISTER_PORTB,direction) ;
04CD   ???? ????      04452         BANKSEL r0x1019
04CF   08??           04453         MOVF    r0x1019,W
                      04454 ;; >>> /home/sdcc-builder/build/sdcc-build/orig/sdcc/src/pic14/gen.c:7050:genAssign
                      04455 ;;      1009
                      04456 ;;      1028  _TRISB   offset=0
04D0   ???? ????      04457         BANKSEL _TRISB
04D2   00??           04458         MOVWF   _TRISB
                      04459 ;;; /home/sdcc-builder/build/sdcc-build/orig/sdcc/src/pic14/gen.c:2316:resultRemat *{*
                      04460 ;;; /home/sdcc-builder/build/sdcc-build/orig/sdcc/src/pic14/gen.c:2778:genGoto *{*
                      04461 ;; >>> /home/sdcc-builder/build/sdcc-build/orig/sdcc/src/pic14/gen.c:2780:genGoto
                      04462 ;; ***  popGetLabel  key=8, label offset 38
                      04463         .line   66; "gpio.c"    break;
04D3   2???           04464         GOTO    _00146_DS_
gpasm-1.4.0 #1106 (Oct  6 2014) obj\Debug\gpi   8-17-2021  02:09:23         PAGE 86


LOC    OBJECT CODE    LINE  SOURCE TEXT
  VALUE

                      04465 ;;; /home/sdcc-builder/build/sdcc-build/orig/sdcc/src/pic14/gen.c:2316:resultRemat *{*
                      04466 ;;; /home/sdcc-builder/build/sdcc-build/orig/sdcc/src/pic14/gen.c:2760:genLabel *{*
                      04467 ;; ***  genLabel  2763
                      04468 ;;; /home/sdcc-builder/build/sdcc-build/orig/sdcc/src/pic14/gen.c:2316:resultRemat *{*
                      04469 ;;; /home/sdcc-builder/build/sdcc-build/orig/sdcc/src/pic14/gen.c:6927:genAssign *{*
                      04470 ;; ***  genAssign  6928
                      04471 ;;      694 register type nRegs=1
                      04472 ;; ***  aopForSym 315
                      04473 ;;      327 sym->rname = _TRISC, size = 1
                      04474 ;;      line = 6937 result AOP_DIR=_TRISC, size=1, left -=-, size=0, right AOP_REG=r0x1053, size=1
                      04475 ;; ***  genAssign  7023
                      04476 ;;; /home/sdcc-builder/build/sdcc-build/orig/sdcc/src/pic14/gen.c:1343:mov2w_op *{*
                      04477 ;; ***  mov2w  1381  offset=0
                      04478 ;; >>> /home/sdcc-builder/build/sdcc-build/orig/sdcc/src/pic14/gen.c:1386:mov2w
                      04479 ;;      1109 rIdx = r0x1053 
04D4                  04480 _00141_DS_
                      04481         .line   68; "gpio.c"    SetRegister(DIRECTION_REGISTER_PORTC,direction) ;
04D4   ???? ????      04482         BANKSEL r0x1019
04D6   08??           04483         MOVF    r0x1019,W
                      04484 ;; >>> /home/sdcc-builder/build/sdcc-build/orig/sdcc/src/pic14/gen.c:7050:genAssign
                      04485 ;;      1009
                      04486 ;;      1028  _TRISC   offset=0
04D7   ???? ????      04487         BANKSEL _TRISC
04D9   00??           04488         MOVWF   _TRISC
                      04489 ;;; /home/sdcc-builder/build/sdcc-build/orig/sdcc/src/pic14/gen.c:2316:resultRemat *{*
                      04490 ;;; /home/sdcc-builder/build/sdcc-build/orig/sdcc/src/pic14/gen.c:2778:genGoto *{*
                      04491 ;; >>> /home/sdcc-builder/build/sdcc-build/orig/sdcc/src/pic14/gen.c:2780:genGoto
                      04492 ;; ***  popGetLabel  key=8, label offset 38
                      04493         .line   69; "gpio.c"    break;
04DA   2???           04494         GOTO    _00146_DS_
                      04495 ;;; /home/sdcc-builder/build/sdcc-build/orig/sdcc/src/pic14/gen.c:2316:resultRemat *{*
                      04496 ;;; /home/sdcc-builder/build/sdcc-build/orig/sdcc/src/pic14/gen.c:2760:genLabel *{*
                      04497 ;; ***  genLabel  2763
                      04498 ;;; /home/sdcc-builder/build/sdcc-build/orig/sdcc/src/pic14/gen.c:2316:resultRemat *{*
                      04499 ;;; /home/sdcc-builder/build/sdcc-build/orig/sdcc/src/pic14/gen.c:6927:genAssign *{*
                      04500 ;; ***  genAssign  6928
                      04501 ;;      694 register type nRegs=1
                      04502 ;; ***  aopForSym 315
                      04503 ;;      327 sym->rname = _TRISD, size = 1
                      04504 ;;      line = 6937 result AOP_DIR=_TRISD, size=1, left -=-, size=0, right AOP_REG=r0x1053, size=1
                      04505 ;; ***  genAssign  7023
                      04506 ;;; /home/sdcc-builder/build/sdcc-build/orig/sdcc/src/pic14/gen.c:1343:mov2w_op *{*
                      04507 ;; ***  mov2w  1381  offset=0
                      04508 ;; >>> /home/sdcc-builder/build/sdcc-build/orig/sdcc/src/pic14/gen.c:1386:mov2w
                      04509 ;;      1109 rIdx = r0x1053 
04DB                  04510 _00142_DS_
                      04511         .line   71; "gpio.c"    SetRegister(DIRECTION_REGISTER_PORTD,direction) ;
04DB   ???? ????      04512         BANKSEL r0x1019
04DD   08??           04513         MOVF    r0x1019,W
                      04514 ;; >>> /home/sdcc-builder/build/sdcc-build/orig/sdcc/src/pic14/gen.c:7050:genAssign
                      04515 ;;      1009
                      04516 ;;      1028  _TRISD   offset=0
04DE   ???? ????      04517         BANKSEL _TRISD
gpasm-1.4.0 #1106 (Oct  6 2014) obj\Debug\gpi   8-17-2021  02:09:23         PAGE 87


LOC    OBJECT CODE    LINE  SOURCE TEXT
  VALUE

04E0   00??           04518         MOVWF   _TRISD
                      04519 ;;; /home/sdcc-builder/build/sdcc-build/orig/sdcc/src/pic14/gen.c:2316:resultRemat *{*
                      04520 ;;; /home/sdcc-builder/build/sdcc-build/orig/sdcc/src/pic14/gen.c:2778:genGoto *{*
                      04521 ;; >>> /home/sdcc-builder/build/sdcc-build/orig/sdcc/src/pic14/gen.c:2780:genGoto
                      04522 ;; ***  popGetLabel  key=8, label offset 38
                      04523         .line   72; "gpio.c"    break;
04E1   2???           04524         GOTO    _00146_DS_
                      04525 ;;; /home/sdcc-builder/build/sdcc-build/orig/sdcc/src/pic14/gen.c:2316:resultRemat *{*
                      04526 ;;; /home/sdcc-builder/build/sdcc-build/orig/sdcc/src/pic14/gen.c:2760:genLabel *{*
                      04527 ;; ***  genLabel  2763
                      04528 ;;; /home/sdcc-builder/build/sdcc-build/orig/sdcc/src/pic14/gen.c:2316:resultRemat *{*
                      04529 ;;; /home/sdcc-builder/build/sdcc-build/orig/sdcc/src/pic14/gen.c:6927:genAssign *{*
                      04530 ;; ***  genAssign  6928
                      04531 ;;      694 register type nRegs=1
                      04532 ;; ***  aopForSym 315
                      04533 ;;      327 sym->rname = _TRISE, size = 1
                      04534 ;;      line = 6937 result AOP_DIR=_TRISE, size=1, left -=-, size=0, right AOP_REG=r0x1053, size=1
                      04535 ;; ***  genAssign  7023
                      04536 ;;; /home/sdcc-builder/build/sdcc-build/orig/sdcc/src/pic14/gen.c:1343:mov2w_op *{*
                      04537 ;; ***  mov2w  1381  offset=0
                      04538 ;; >>> /home/sdcc-builder/build/sdcc-build/orig/sdcc/src/pic14/gen.c:1386:mov2w
                      04539 ;;      1109 rIdx = r0x1053 
04E2                  04540 _00143_DS_
                      04541         .line   74; "gpio.c"    SetRegister(DIRECTION_REGISTER_PORTE,direction) ;
04E2   ???? ????      04542         BANKSEL r0x1019
04E4   08??           04543         MOVF    r0x1019,W
                      04544 ;; >>> /home/sdcc-builder/build/sdcc-build/orig/sdcc/src/pic14/gen.c:7050:genAssign
                      04545 ;;      1009
                      04546 ;;      1028  _TRISE   offset=0
04E5   ???? ????      04547         BANKSEL _TRISE
04E7   00??           04548         MOVWF   _TRISE
                      04549 ;;; /home/sdcc-builder/build/sdcc-build/orig/sdcc/src/pic14/gen.c:2316:resultRemat *{*
                      04550 ;;; /home/sdcc-builder/build/sdcc-build/orig/sdcc/src/pic14/gen.c:2760:genLabel *{*
                      04551 ;; ***  genLabel  2763
                      04552 ;;; /home/sdcc-builder/build/sdcc-build/orig/sdcc/src/pic14/gen.c:2316:resultRemat *{*
                      04553 ;;; /home/sdcc-builder/build/sdcc-build/orig/sdcc/src/pic14/gen.c:2528:genEndFunction *{*
                      04554 ;; ***  genEndFunction  2530
04E8                  04555 _00146_DS_
                      04556         .line   79; "gpio.c"    }
04E8   0008           04557         RETURN  
                      04558 ; exit point of _GPIO_SetPortDirection
                      04559 ;;; /home/sdcc-builder/build/sdcc-build/orig/sdcc/src/pic14/gen.c:7426:genpic14Code *{*
                      04560 
                      04561 ;***
                      04562 ;  pBlock Stats: dbName = C
                      04563 ;***
                      04564 ;entry:  _GPIO_SetPortData      ;Function start
                      04565 ; 2 exit points
                      04566 ;has an exit
                      04567 ;3 compiler assigned registers:
                      04568 ;   r0x101A
                      04569 ;   STK00
                      04570 ;   r0x101B
gpasm-1.4.0 #1106 (Oct  6 2014) obj\Debug\gpi   8-17-2021  02:09:23         PAGE 88


LOC    OBJECT CODE    LINE  SOURCE TEXT
  VALUE

                      04571 ;; Starting pCode block
                      04572 ;;; /home/sdcc-builder/build/sdcc-build/orig/sdcc/src/pic14/gen.c:2316:resultRemat *{*
                      04573 ;;; /home/sdcc-builder/build/sdcc-build/orig/sdcc/src/pic14/gen.c:2760:genLabel *{*
                      04574 ;; ***  genLabel  2763
                      04575 ;;; /home/sdcc-builder/build/sdcc-build/orig/sdcc/src/pic14/gen.c:2316:resultRemat *{*
                      04576 ;;; /home/sdcc-builder/build/sdcc-build/orig/sdcc/src/pic14/gen.c:2340:genFunction *{*
                      04577 ;; ***  genFunction  2342 curr label offset=16previous max_key=0 
04E9                  04578 _GPIO_SetPortData       ;Function start
                      04579 ; 2 exit points
                      04580 ;;; /home/sdcc-builder/build/sdcc-build/orig/sdcc/src/pic14/gen.c:2316:resultRemat *{*
                      04581 ;;; /home/sdcc-builder/build/sdcc-build/orig/sdcc/src/pic14/gen.c:7358:genReceive *{*
                      04582 ;; ***  genReceive  7359
                      04583 ;;      694 register type nRegs=1
                      04584 ;;; /home/sdcc-builder/build/sdcc-build/orig/sdcc/src/pic14/gen.c:1907:assignResultValue *{*
                      04585 ;; ***  assignResultValue  1909
                      04586 ;;      line = 1911 result -=-, size=0, left AOP_REG=r0x104F, size=1, right -=-, size=0
                      04587 ;; >>> /home/sdcc-builder/build/sdcc-build/orig/sdcc/src/pic14/gen.c:1393:movwf
                      04588 ;;      1109 rIdx = r0x104F 
                      04589         .line   33; "gpio.c"    void GPIO_SetPortData(tPORT port,U8 data)
04E9   ???? ????      04590         BANKSEL r0x101A
04EB   00??           04591         MOVWF   r0x101A
                      04592 ;;; /home/sdcc-builder/build/sdcc-build/orig/sdcc/src/pic14/gen.c:2316:resultRemat *{*
                      04593 ;;; /home/sdcc-builder/build/sdcc-build/orig/sdcc/src/pic14/gen.c:7358:genReceive *{*
                      04594 ;; ***  genReceive  7359
                      04595 ;;      694 register type nRegs=1
                      04596 ;;; /home/sdcc-builder/build/sdcc-build/orig/sdcc/src/pic14/gen.c:1907:assignResultValue *{*
                      04597 ;; ***  assignResultValue  1909
                      04598 ;;      line = 1911 result -=-, size=0, left AOP_REG=r0x1050, size=1, right -=-, size=0
                      04599 ;; >>> /home/sdcc-builder/build/sdcc-build/orig/sdcc/src/pic14/gen.c:1423:get_returnvalue
                      04600 ;; ***  popRegFromIdx,1042  , rIdx=0x7f
04EC   08??           04601         MOVF    STK00,W
                      04602 ;; >>> /home/sdcc-builder/build/sdcc-build/orig/sdcc/src/pic14/gen.c:1393:movwf
                      04603 ;;      1109 rIdx = r0x1050 
04ED   00??           04604         MOVWF   r0x101B
                      04605 ;;; /home/sdcc-builder/build/sdcc-build/orig/sdcc/src/pic14/gen.c:2316:resultRemat *{*
                      04606 ;;; /home/sdcc-builder/build/sdcc-build/orig/sdcc/src/pic14/gen.c:3547:genCmpGt *{*
                      04607 ;; ***  genCmpGt  3548
                      04608 ;;      694 register type nRegs=1
                      04609 ;;; /home/sdcc-builder/build/sdcc-build/orig/sdcc/src/pic14/gen.c:3294:genCmp *{*
                      04610 ;;swapping arguments (AOP_TYPEs 1/2)
                      04611 ;;unsigned compare: left >= lit(0x5=5), size=1
                      04612 ;; >>> /home/sdcc-builder/build/sdcc-build/orig/sdcc/src/pic14/gen.c:3265:pic14_mov2w_regOrLit
                      04613         .line   35; "gpio.c"    switch(port)
04EE   3005           04614         MOVLW   0x05
                      04615 ;; >>> /home/sdcc-builder/build/sdcc-build/orig/sdcc/src/pic14/gen.c:3432:genCmp
                      04616 ;;      1109 rIdx = r0x104F 
04EF   02??           04617         SUBWF   r0x101A,W
                      04618 ;;; /home/sdcc-builder/build/sdcc-build/orig/sdcc/src/pic14/gen.c:3237:genSkipc *{*
                      04619 ;; >>> /home/sdcc-builder/build/sdcc-build/orig/sdcc/src/pic14/gen.c:3242:genSkipc
04F0   1803           04620         BTFSC   STATUS,0
                      04621 ;; >>> /home/sdcc-builder/build/sdcc-build/orig/sdcc/src/pic14/gen.c:3246:genSkipc
                      04622 ;; ***  popGetLabel  key=8, label offset 20
04F1   2???           04623         GOTO    _00128_DS_
gpasm-1.4.0 #1106 (Oct  6 2014) obj\Debug\gpi   8-17-2021  02:09:23         PAGE 89


LOC    OBJECT CODE    LINE  SOURCE TEXT
  VALUE

                      04624 ;;genSkipc:3247: created from rifx:027A5DF4
                      04625 ;;; /home/sdcc-builder/build/sdcc-build/orig/sdcc/src/pic14/gen.c:2316:resultRemat *{*
                      04626 ;;; /home/sdcc-builder/build/sdcc-build/orig/sdcc/src/pic14/gen.c:2316:resultRemat *{*
                      04627 ;;; /home/sdcc-builder/build/sdcc-build/orig/sdcc/src/pic14/gen.c:7071:genJumpTab *{*
                      04628 ;; ***  genJumpTab  7072
                      04629 ;;      694 register type nRegs=1
                      04630 ;; >>> /home/sdcc-builder/build/sdcc-build/orig/sdcc/src/pic14/gen.c:7087:genJumpTab
                      04631 ;; ***  popGetLabel  key=14, label offset 20
04F2   30??           04632         MOVLW   HIGH(_00134_DS_)
                      04633 ;; >>> /home/sdcc-builder/build/sdcc-build/orig/sdcc/src/pic14/gen.c:7088:genJumpTab
04F3   1283 1303      04634         BANKSEL PCLATH
04F5   008A           04635         MOVWF   PCLATH
                      04636 ;; >>> /home/sdcc-builder/build/sdcc-build/orig/sdcc/src/pic14/gen.c:7089:genJumpTab
                      04637 ;; ***  popGetLabel  key=14, label offset 20
04F6   30??           04638         MOVLW   _00134_DS_
                      04639 ;; >>> /home/sdcc-builder/build/sdcc-build/orig/sdcc/src/pic14/gen.c:7090:genJumpTab
                      04640 ;;      1109 rIdx = r0x104F 
04F7   ???? ????      04641         BANKSEL r0x101A
04F9   07??           04642         ADDWF   r0x101A,W
                      04643 ;; >>> /home/sdcc-builder/build/sdcc-build/orig/sdcc/src/pic14/gen.c:7091:genJumpTab
04FA   1C03           04644         BTFSS   STATUS,0
04FB   2???           04645         GOTO    _00008_DS_
                      04646 ;; >>> /home/sdcc-builder/build/sdcc-build/orig/sdcc/src/pic14/gen.c:7092:genJumpTab
04FC   1283 1303      04647         BANKSEL PCLATH
04FE   0A8A           04648         INCF    PCLATH,F
                      04649 ;; >>> /home/sdcc-builder/build/sdcc-build/orig/sdcc/src/pic14/gen.c:7093:genJumpTab
04FF                  04650 _00008_DS_
04FF   0082           04651         MOVWF   PCL
                      04652 ;; >>> /home/sdcc-builder/build/sdcc-build/orig/sdcc/src/pic14/gen.c:7102:genJumpTab
                      04653 ;; ***  popGetLabel  key=1, label offset 20
0500                  04654 _00134_DS_
0500   2???           04655         GOTO    _00121_DS_
                      04656 ;; >>> /home/sdcc-builder/build/sdcc-build/orig/sdcc/src/pic14/gen.c:7102:genJumpTab
                      04657 ;; ***  popGetLabel  key=2, label offset 20
0501   2???           04658         GOTO    _00122_DS_
                      04659 ;; >>> /home/sdcc-builder/build/sdcc-build/orig/sdcc/src/pic14/gen.c:7102:genJumpTab
                      04660 ;; ***  popGetLabel  key=3, label offset 20
0502   2???           04661         GOTO    _00123_DS_
                      04662 ;; >>> /home/sdcc-builder/build/sdcc-build/orig/sdcc/src/pic14/gen.c:7102:genJumpTab
                      04663 ;; ***  popGetLabel  key=4, label offset 20
0503   2???           04664         GOTO    _00124_DS_
                      04665 ;; >>> /home/sdcc-builder/build/sdcc-build/orig/sdcc/src/pic14/gen.c:7102:genJumpTab
                      04666 ;; ***  popGetLabel  key=5, label offset 20
0504   2???           04667         GOTO    _00125_DS_
                      04668 ;;; /home/sdcc-builder/build/sdcc-build/orig/sdcc/src/pic14/gen.c:2316:resultRemat *{*
                      04669 ;;; /home/sdcc-builder/build/sdcc-build/orig/sdcc/src/pic14/gen.c:2760:genLabel *{*
                      04670 ;; ***  genLabel  2763
                      04671 ;;; /home/sdcc-builder/build/sdcc-build/orig/sdcc/src/pic14/gen.c:2316:resultRemat *{*
                      04672 ;;; /home/sdcc-builder/build/sdcc-build/orig/sdcc/src/pic14/gen.c:6927:genAssign *{*
                      04673 ;; ***  genAssign  6928
                      04674 ;;      694 register type nRegs=1
                      04675 ;; ***  aopForSym 315
                      04676 ;;      327 sym->rname = _PORTA, size = 1
gpasm-1.4.0 #1106 (Oct  6 2014) obj\Debug\gpi   8-17-2021  02:09:23         PAGE 90


LOC    OBJECT CODE    LINE  SOURCE TEXT
  VALUE

                      04677 ;;      line = 6937 result AOP_DIR=_PORTA, size=1, left -=-, size=0, right AOP_REG=r0x1050, size=1
                      04678 ;; ***  genAssign  7023
                      04679 ;;; /home/sdcc-builder/build/sdcc-build/orig/sdcc/src/pic14/gen.c:1343:mov2w_op *{*
                      04680 ;; ***  mov2w  1381  offset=0
                      04681 ;; >>> /home/sdcc-builder/build/sdcc-build/orig/sdcc/src/pic14/gen.c:1386:mov2w
                      04682 ;;      1109 rIdx = r0x1050 
0505                  04683 _00121_DS_
                      04684         .line   38; "gpio.c"    SetRegister(DATA_REGISTER_WRITE_PORTA,data) ;
0505   ???? ????      04685         BANKSEL r0x101B
0507   08??           04686         MOVF    r0x101B,W
                      04687 ;; >>> /home/sdcc-builder/build/sdcc-build/orig/sdcc/src/pic14/gen.c:7050:genAssign
                      04688 ;;      1009
                      04689 ;;      1024  _PORTA   offset=0 - had to alloc by reg name
0508   ???? ????      04690         BANKSEL _PORTA
050A   00??           04691         MOVWF   _PORTA
                      04692 ;;; /home/sdcc-builder/build/sdcc-build/orig/sdcc/src/pic14/gen.c:2316:resultRemat *{*
                      04693 ;;; /home/sdcc-builder/build/sdcc-build/orig/sdcc/src/pic14/gen.c:2778:genGoto *{*
                      04694 ;; >>> /home/sdcc-builder/build/sdcc-build/orig/sdcc/src/pic14/gen.c:2780:genGoto
                      04695 ;; ***  popGetLabel  key=8, label offset 20
                      04696         .line   39; "gpio.c"    break;
050B   2???           04697         GOTO    _00128_DS_
                      04698 ;;; /home/sdcc-builder/build/sdcc-build/orig/sdcc/src/pic14/gen.c:2316:resultRemat *{*
                      04699 ;;; /home/sdcc-builder/build/sdcc-build/orig/sdcc/src/pic14/gen.c:2760:genLabel *{*
                      04700 ;; ***  genLabel  2763
                      04701 ;;; /home/sdcc-builder/build/sdcc-build/orig/sdcc/src/pic14/gen.c:2316:resultRemat *{*
                      04702 ;;; /home/sdcc-builder/build/sdcc-build/orig/sdcc/src/pic14/gen.c:6927:genAssign *{*
                      04703 ;; ***  genAssign  6928
                      04704 ;;      694 register type nRegs=1
                      04705 ;; ***  aopForSym 315
                      04706 ;;      327 sym->rname = _PORTB, size = 1
                      04707 ;;      line = 6937 result AOP_DIR=_PORTB, size=1, left -=-, size=0, right AOP_REG=r0x1050, size=1
                      04708 ;; ***  genAssign  7023
                      04709 ;;; /home/sdcc-builder/build/sdcc-build/orig/sdcc/src/pic14/gen.c:1343:mov2w_op *{*
                      04710 ;; ***  mov2w  1381  offset=0
                      04711 ;; >>> /home/sdcc-builder/build/sdcc-build/orig/sdcc/src/pic14/gen.c:1386:mov2w
                      04712 ;;      1109 rIdx = r0x1050 
050C                  04713 _00122_DS_
                      04714         .line   41; "gpio.c"    SetRegister(DATA_REGISTER_WRITE_PORTB,data) ;
050C   ???? ????      04715         BANKSEL r0x101B
050E   08??           04716         MOVF    r0x101B,W
                      04717 ;; >>> /home/sdcc-builder/build/sdcc-build/orig/sdcc/src/pic14/gen.c:7050:genAssign
                      04718 ;;      1009
                      04719 ;;      1028  _PORTB   offset=0
050F   ???? ????      04720         BANKSEL _PORTB
0511   00??           04721         MOVWF   _PORTB
                      04722 ;;; /home/sdcc-builder/build/sdcc-build/orig/sdcc/src/pic14/gen.c:2316:resultRemat *{*
                      04723 ;;; /home/sdcc-builder/build/sdcc-build/orig/sdcc/src/pic14/gen.c:2778:genGoto *{*
                      04724 ;; >>> /home/sdcc-builder/build/sdcc-build/orig/sdcc/src/pic14/gen.c:2780:genGoto
                      04725 ;; ***  popGetLabel  key=8, label offset 20
                      04726         .line   42; "gpio.c"    break;
0512   2???           04727         GOTO    _00128_DS_
                      04728 ;;; /home/sdcc-builder/build/sdcc-build/orig/sdcc/src/pic14/gen.c:2316:resultRemat *{*
                      04729 ;;; /home/sdcc-builder/build/sdcc-build/orig/sdcc/src/pic14/gen.c:2760:genLabel *{*
gpasm-1.4.0 #1106 (Oct  6 2014) obj\Debug\gpi   8-17-2021  02:09:23         PAGE 91


LOC    OBJECT CODE    LINE  SOURCE TEXT
  VALUE

                      04730 ;; ***  genLabel  2763
                      04731 ;;; /home/sdcc-builder/build/sdcc-build/orig/sdcc/src/pic14/gen.c:2316:resultRemat *{*
                      04732 ;;; /home/sdcc-builder/build/sdcc-build/orig/sdcc/src/pic14/gen.c:6927:genAssign *{*
                      04733 ;; ***  genAssign  6928
                      04734 ;;      694 register type nRegs=1
                      04735 ;; ***  aopForSym 315
                      04736 ;;      327 sym->rname = _PORTC, size = 1
                      04737 ;;      line = 6937 result AOP_DIR=_PORTC, size=1, left -=-, size=0, right AOP_REG=r0x1050, size=1
                      04738 ;; ***  genAssign  7023
                      04739 ;;; /home/sdcc-builder/build/sdcc-build/orig/sdcc/src/pic14/gen.c:1343:mov2w_op *{*
                      04740 ;; ***  mov2w  1381  offset=0
                      04741 ;; >>> /home/sdcc-builder/build/sdcc-build/orig/sdcc/src/pic14/gen.c:1386:mov2w
                      04742 ;;      1109 rIdx = r0x1050 
0513                  04743 _00123_DS_
                      04744         .line   44; "gpio.c"    SetRegister(DATA_REGISTER_WRITE_PORTC,data) ;
0513   ???? ????      04745         BANKSEL r0x101B
0515   08??           04746         MOVF    r0x101B,W
                      04747 ;; >>> /home/sdcc-builder/build/sdcc-build/orig/sdcc/src/pic14/gen.c:7050:genAssign
                      04748 ;;      1009
                      04749 ;;      1028  _PORTC   offset=0
0516   ???? ????      04750         BANKSEL _PORTC
0518   00??           04751         MOVWF   _PORTC
                      04752 ;;; /home/sdcc-builder/build/sdcc-build/orig/sdcc/src/pic14/gen.c:2316:resultRemat *{*
                      04753 ;;; /home/sdcc-builder/build/sdcc-build/orig/sdcc/src/pic14/gen.c:2778:genGoto *{*
                      04754 ;; >>> /home/sdcc-builder/build/sdcc-build/orig/sdcc/src/pic14/gen.c:2780:genGoto
                      04755 ;; ***  popGetLabel  key=8, label offset 20
                      04756         .line   45; "gpio.c"    break;
0519   2???           04757         GOTO    _00128_DS_
                      04758 ;;; /home/sdcc-builder/build/sdcc-build/orig/sdcc/src/pic14/gen.c:2316:resultRemat *{*
                      04759 ;;; /home/sdcc-builder/build/sdcc-build/orig/sdcc/src/pic14/gen.c:2760:genLabel *{*
                      04760 ;; ***  genLabel  2763
                      04761 ;;; /home/sdcc-builder/build/sdcc-build/orig/sdcc/src/pic14/gen.c:2316:resultRemat *{*
                      04762 ;;; /home/sdcc-builder/build/sdcc-build/orig/sdcc/src/pic14/gen.c:6927:genAssign *{*
                      04763 ;; ***  genAssign  6928
                      04764 ;;      694 register type nRegs=1
                      04765 ;; ***  aopForSym 315
                      04766 ;;      327 sym->rname = _PORTD, size = 1
                      04767 ;;      line = 6937 result AOP_DIR=_PORTD, size=1, left -=-, size=0, right AOP_REG=r0x1050, size=1
                      04768 ;; ***  genAssign  7023
                      04769 ;;; /home/sdcc-builder/build/sdcc-build/orig/sdcc/src/pic14/gen.c:1343:mov2w_op *{*
                      04770 ;; ***  mov2w  1381  offset=0
                      04771 ;; >>> /home/sdcc-builder/build/sdcc-build/orig/sdcc/src/pic14/gen.c:1386:mov2w
                      04772 ;;      1109 rIdx = r0x1050 
051A                  04773 _00124_DS_
                      04774         .line   47; "gpio.c"    SetRegister(DATA_REGISTER_WRITE_PORTD,data) ;
051A   ???? ????      04775         BANKSEL r0x101B
051C   08??           04776         MOVF    r0x101B,W
                      04777 ;; >>> /home/sdcc-builder/build/sdcc-build/orig/sdcc/src/pic14/gen.c:7050:genAssign
                      04778 ;;      1009
                      04779 ;;      1028  _PORTD   offset=0
051D   ???? ????      04780         BANKSEL _PORTD
051F   00??           04781         MOVWF   _PORTD
                      04782 ;;; /home/sdcc-builder/build/sdcc-build/orig/sdcc/src/pic14/gen.c:2316:resultRemat *{*
gpasm-1.4.0 #1106 (Oct  6 2014) obj\Debug\gpi   8-17-2021  02:09:23         PAGE 92


LOC    OBJECT CODE    LINE  SOURCE TEXT
  VALUE

                      04783 ;;; /home/sdcc-builder/build/sdcc-build/orig/sdcc/src/pic14/gen.c:2778:genGoto *{*
                      04784 ;; >>> /home/sdcc-builder/build/sdcc-build/orig/sdcc/src/pic14/gen.c:2780:genGoto
                      04785 ;; ***  popGetLabel  key=8, label offset 20
                      04786         .line   48; "gpio.c"    break;
0520   2???           04787         GOTO    _00128_DS_
                      04788 ;;; /home/sdcc-builder/build/sdcc-build/orig/sdcc/src/pic14/gen.c:2316:resultRemat *{*
                      04789 ;;; /home/sdcc-builder/build/sdcc-build/orig/sdcc/src/pic14/gen.c:2760:genLabel *{*
                      04790 ;; ***  genLabel  2763
                      04791 ;;; /home/sdcc-builder/build/sdcc-build/orig/sdcc/src/pic14/gen.c:2316:resultRemat *{*
                      04792 ;;; /home/sdcc-builder/build/sdcc-build/orig/sdcc/src/pic14/gen.c:6927:genAssign *{*
                      04793 ;; ***  genAssign  6928
                      04794 ;;      694 register type nRegs=1
                      04795 ;; ***  aopForSym 315
                      04796 ;;      327 sym->rname = _PORTE, size = 1
                      04797 ;;      line = 6937 result AOP_DIR=_PORTE, size=1, left -=-, size=0, right AOP_REG=r0x1050, size=1
                      04798 ;; ***  genAssign  7023
                      04799 ;;; /home/sdcc-builder/build/sdcc-build/orig/sdcc/src/pic14/gen.c:1343:mov2w_op *{*
                      04800 ;; ***  mov2w  1381  offset=0
                      04801 ;; >>> /home/sdcc-builder/build/sdcc-build/orig/sdcc/src/pic14/gen.c:1386:mov2w
                      04802 ;;      1109 rIdx = r0x1050 
0521                  04803 _00125_DS_
                      04804         .line   50; "gpio.c"    SetRegister(DATA_REGISTER_WRITE_PORTE,data) ;
0521   ???? ????      04805         BANKSEL r0x101B
0523   08??           04806         MOVF    r0x101B,W
                      04807 ;; >>> /home/sdcc-builder/build/sdcc-build/orig/sdcc/src/pic14/gen.c:7050:genAssign
                      04808 ;;      1009
                      04809 ;;      1028  _PORTE   offset=0
0524   ???? ????      04810         BANKSEL _PORTE
0526   00??           04811         MOVWF   _PORTE
                      04812 ;;; /home/sdcc-builder/build/sdcc-build/orig/sdcc/src/pic14/gen.c:2316:resultRemat *{*
                      04813 ;;; /home/sdcc-builder/build/sdcc-build/orig/sdcc/src/pic14/gen.c:2760:genLabel *{*
                      04814 ;; ***  genLabel  2763
                      04815 ;;; /home/sdcc-builder/build/sdcc-build/orig/sdcc/src/pic14/gen.c:2316:resultRemat *{*
                      04816 ;;; /home/sdcc-builder/build/sdcc-build/orig/sdcc/src/pic14/gen.c:2528:genEndFunction *{*
                      04817 ;; ***  genEndFunction  2530
0527                  04818 _00128_DS_
                      04819         .line   55; "gpio.c"    }
0527   0008           04820         RETURN  
                      04821 ; exit point of _GPIO_SetPortData
                      04822 ;;; /home/sdcc-builder/build/sdcc-build/orig/sdcc/src/pic14/gen.c:7426:genpic14Code *{*
                      04823 
                      04824 ;***
                      04825 ;  pBlock Stats: dbName = C
                      04826 ;***
                      04827 ;entry:  _GPIO_UpdatePin        ;Function start
                      04828 ; 2 exit points
                      04829 ;has an exit
                      04830 ;; Starting pCode block
                      04831 ;;; /home/sdcc-builder/build/sdcc-build/orig/sdcc/src/pic14/gen.c:2316:resultRemat *{*
                      04832 ;;; /home/sdcc-builder/build/sdcc-build/orig/sdcc/src/pic14/gen.c:2760:genLabel *{*
                      04833 ;; ***  genLabel  2763
                      04834 ;;; /home/sdcc-builder/build/sdcc-build/orig/sdcc/src/pic14/gen.c:2316:resultRemat *{*
                      04835 ;;; /home/sdcc-builder/build/sdcc-build/orig/sdcc/src/pic14/gen.c:2340:genFunction *{*
gpasm-1.4.0 #1106 (Oct  6 2014) obj\Debug\gpi   8-17-2021  02:09:23         PAGE 93


LOC    OBJECT CODE    LINE  SOURCE TEXT
  VALUE

                      04836 ;; ***  genFunction  2342 curr label offset=12previous max_key=0 
0528                  04837 _GPIO_UpdatePin ;Function start
                      04838 ; 2 exit points
                      04839 ;;; /home/sdcc-builder/build/sdcc-build/orig/sdcc/src/pic14/gen.c:2316:resultRemat *{*
                      04840 ;;; /home/sdcc-builder/build/sdcc-build/orig/sdcc/src/pic14/gen.c:2760:genLabel *{*
                      04841 ;; ***  genLabel  2763
                      04842 ;;; /home/sdcc-builder/build/sdcc-build/orig/sdcc/src/pic14/gen.c:2316:resultRemat *{*
                      04843 ;;; /home/sdcc-builder/build/sdcc-build/orig/sdcc/src/pic14/gen.c:2528:genEndFunction *{*
                      04844 ;; ***  genEndFunction  2530
                      04845         .line   32; "gpio.c"    }
0528   0008           04846         RETURN  
                      04847 ; exit point of _GPIO_UpdatePin
                      04848 ;;; /home/sdcc-builder/build/sdcc-build/orig/sdcc/src/pic14/gen.c:7426:genpic14Code *{*
                      04849 
                      04850 ;***
                      04851 ;  pBlock Stats: dbName = C
                      04852 ;***
                      04853 ;entry:  _GPIO_UpdatePort       ;Function start
                      04854 ; 2 exit points
                      04855 ;has an exit
                      04856 ;; Starting pCode block
                      04857 ;;; /home/sdcc-builder/build/sdcc-build/orig/sdcc/src/pic14/gen.c:2316:resultRemat *{*
                      04858 ;;; /home/sdcc-builder/build/sdcc-build/orig/sdcc/src/pic14/gen.c:2760:genLabel *{*
                      04859 ;; ***  genLabel  2763
                      04860 ;;; /home/sdcc-builder/build/sdcc-build/orig/sdcc/src/pic14/gen.c:2316:resultRemat *{*
                      04861 ;;; /home/sdcc-builder/build/sdcc-build/orig/sdcc/src/pic14/gen.c:2340:genFunction *{*
                      04862 ;; ***  genFunction  2342 curr label offset=8previous max_key=0 
0529                  04863 _GPIO_UpdatePort        ;Function start
                      04864 ; 2 exit points
                      04865 ;;; /home/sdcc-builder/build/sdcc-build/orig/sdcc/src/pic14/gen.c:2316:resultRemat *{*
                      04866 ;;; /home/sdcc-builder/build/sdcc-build/orig/sdcc/src/pic14/gen.c:2760:genLabel *{*
                      04867 ;; ***  genLabel  2763
                      04868 ;;; /home/sdcc-builder/build/sdcc-build/orig/sdcc/src/pic14/gen.c:2316:resultRemat *{*
                      04869 ;;; /home/sdcc-builder/build/sdcc-build/orig/sdcc/src/pic14/gen.c:2528:genEndFunction *{*
                      04870 ;; ***  genEndFunction  2530
                      04871         .line   28; "gpio.c"    }
0529   0008           04872         RETURN  
                      04873 ; exit point of _GPIO_UpdatePort
                      04874 ;;; /home/sdcc-builder/build/sdcc-build/orig/sdcc/src/pic14/gen.c:7426:genpic14Code *{*
                      04875 
                      04876 ;***
                      04877 ;  pBlock Stats: dbName = C
                      04878 ;***
                      04879 ;entry:  _GPIO_InitPin  ;Function start
                      04880 ; 2 exit points
                      04881 ;has an exit
                      04882 ;functions called:
                      04883 ;   _GPIO_SetPinDirection
                      04884 ;   _GPIO_SetPinState
                      04885 ;   _GPIO_SetPinDirection
                      04886 ;   _GPIO_SetPinState
                      04887 ;7 compiler assigned registers:
                      04888 ;   r0x101C
gpasm-1.4.0 #1106 (Oct  6 2014) obj\Debug\gpi   8-17-2021  02:09:23         PAGE 94


LOC    OBJECT CODE    LINE  SOURCE TEXT
  VALUE

                      04889 ;   STK00
                      04890 ;   r0x101D
                      04891 ;   STK01
                      04892 ;   r0x101E
                      04893 ;   STK02
                      04894 ;   r0x101F
                      04895 ;; Starting pCode block
                      04896 ;;; /home/sdcc-builder/build/sdcc-build/orig/sdcc/src/pic14/gen.c:2316:resultRemat *{*
                      04897 ;;; /home/sdcc-builder/build/sdcc-build/orig/sdcc/src/pic14/gen.c:2760:genLabel *{*
                      04898 ;; ***  genLabel  2763
                      04899 ;;; /home/sdcc-builder/build/sdcc-build/orig/sdcc/src/pic14/gen.c:2316:resultRemat *{*
                      04900 ;;; /home/sdcc-builder/build/sdcc-build/orig/sdcc/src/pic14/gen.c:2340:genFunction *{*
                      04901 ;; ***  genFunction  2342 curr label offset=4previous max_key=0 
052A                  04902 _GPIO_InitPin   ;Function start
                      04903 ; 2 exit points
                      04904 ;;; /home/sdcc-builder/build/sdcc-build/orig/sdcc/src/pic14/gen.c:2316:resultRemat *{*
                      04905 ;;; /home/sdcc-builder/build/sdcc-build/orig/sdcc/src/pic14/gen.c:7358:genReceive *{*
                      04906 ;; ***  genReceive  7359
                      04907 ;;      694 register type nRegs=1
                      04908 ;;; /home/sdcc-builder/build/sdcc-build/orig/sdcc/src/pic14/gen.c:1907:assignResultValue *{*
                      04909 ;; ***  assignResultValue  1909
                      04910 ;;      line = 1911 result -=-, size=0, left AOP_REG=r0x104B, size=1, right -=-, size=0
                      04911 ;; >>> /home/sdcc-builder/build/sdcc-build/orig/sdcc/src/pic14/gen.c:1393:movwf
                      04912 ;;      1109 rIdx = r0x104B 
                      04913         .line   17; "gpio.c"    void GPIO_InitPin(tPORT port , tPIN pin ,tPIN_DIRECTION direction ,tSTAT
                            E init_state)
052A   ???? ????      04914         BANKSEL r0x101C
052C   00??           04915         MOVWF   r0x101C
                      04916 ;;; /home/sdcc-builder/build/sdcc-build/orig/sdcc/src/pic14/gen.c:2316:resultRemat *{*
                      04917 ;;; /home/sdcc-builder/build/sdcc-build/orig/sdcc/src/pic14/gen.c:7358:genReceive *{*
                      04918 ;; ***  genReceive  7359
                      04919 ;;      694 register type nRegs=1
                      04920 ;;; /home/sdcc-builder/build/sdcc-build/orig/sdcc/src/pic14/gen.c:1907:assignResultValue *{*
                      04921 ;; ***  assignResultValue  1909
                      04922 ;;      line = 1911 result -=-, size=0, left AOP_REG=r0x104C, size=1, right -=-, size=0
                      04923 ;; >>> /home/sdcc-builder/build/sdcc-build/orig/sdcc/src/pic14/gen.c:1423:get_returnvalue
                      04924 ;; ***  popRegFromIdx,1042  , rIdx=0x7f
052D   08??           04925         MOVF    STK00,W
                      04926 ;; >>> /home/sdcc-builder/build/sdcc-build/orig/sdcc/src/pic14/gen.c:1393:movwf
                      04927 ;;      1109 rIdx = r0x104C 
052E   00??           04928         MOVWF   r0x101D
                      04929 ;;; /home/sdcc-builder/build/sdcc-build/orig/sdcc/src/pic14/gen.c:2316:resultRemat *{*
                      04930 ;;; /home/sdcc-builder/build/sdcc-build/orig/sdcc/src/pic14/gen.c:7358:genReceive *{*
                      04931 ;; ***  genReceive  7359
                      04932 ;;      694 register type nRegs=1
                      04933 ;;; /home/sdcc-builder/build/sdcc-build/orig/sdcc/src/pic14/gen.c:1907:assignResultValue *{*
                      04934 ;; ***  assignResultValue  1909
                      04935 ;;      line = 1911 result -=-, size=0, left AOP_REG=r0x104D, size=1, right -=-, size=0
                      04936 ;; >>> /home/sdcc-builder/build/sdcc-build/orig/sdcc/src/pic14/gen.c:1423:get_returnvalue
                      04937 ;; ***  popRegFromIdx,1042  , rIdx=0x7e
052F   08??           04938         MOVF    STK01,W
                      04939 ;; >>> /home/sdcc-builder/build/sdcc-build/orig/sdcc/src/pic14/gen.c:1393:movwf
                      04940 ;;      1109 rIdx = r0x104D 
gpasm-1.4.0 #1106 (Oct  6 2014) obj\Debug\gpi   8-17-2021  02:09:23         PAGE 95


LOC    OBJECT CODE    LINE  SOURCE TEXT
  VALUE

0530   00??           04941         MOVWF   r0x101E
                      04942 ;;; /home/sdcc-builder/build/sdcc-build/orig/sdcc/src/pic14/gen.c:2316:resultRemat *{*
                      04943 ;;; /home/sdcc-builder/build/sdcc-build/orig/sdcc/src/pic14/gen.c:7358:genReceive *{*
                      04944 ;; ***  genReceive  7359
                      04945 ;;      694 register type nRegs=1
                      04946 ;;; /home/sdcc-builder/build/sdcc-build/orig/sdcc/src/pic14/gen.c:1907:assignResultValue *{*
                      04947 ;; ***  assignResultValue  1909
                      04948 ;;      line = 1911 result -=-, size=0, left AOP_REG=r0x104E, size=1, right -=-, size=0
                      04949 ;; >>> /home/sdcc-builder/build/sdcc-build/orig/sdcc/src/pic14/gen.c:1423:get_returnvalue
                      04950 ;; ***  popRegFromIdx,1042  , rIdx=0x7d
0531   08??           04951         MOVF    STK02,W
                      04952 ;; >>> /home/sdcc-builder/build/sdcc-build/orig/sdcc/src/pic14/gen.c:1393:movwf
                      04953 ;;      1109 rIdx = r0x104E 
0532   00??           04954         MOVWF   r0x101F
                      04955 ;;; /home/sdcc-builder/build/sdcc-build/orig/sdcc/src/pic14/gen.c:2316:resultRemat *{*
                      04956 ;;; /home/sdcc-builder/build/sdcc-build/orig/sdcc/src/pic14/gen.c:2316:resultRemat *{*
                      04957 ;;; /home/sdcc-builder/build/sdcc-build/orig/sdcc/src/pic14/gen.c:2316:resultRemat *{*
                      04958 ;;; /home/sdcc-builder/build/sdcc-build/orig/sdcc/src/pic14/gen.c:2316:resultRemat *{*
                      04959 ;;; /home/sdcc-builder/build/sdcc-build/orig/sdcc/src/pic14/gen.c:2086:genCall *{*
                      04960 ;; ***  genCall  2088
                      04961 ;;; /home/sdcc-builder/build/sdcc-build/orig/sdcc/src/pic14/gen.c:1801:saveRegisters *{*
                      04962 ;; ***  saveRegisters  1803
                      04963 ;;      694 register type nRegs=1
                      04964 ;;      694 register type nRegs=1
                      04965 ;;      694 register type nRegs=1
                      04966 ;;      694 register type nRegs=1
                      04967 ;;      2135 left AOP_REG
                      04968 ;;; /home/sdcc-builder/build/sdcc-build/orig/sdcc/src/pic14/gen.c:1343:mov2w_op *{*
                      04969 ;; ***  mov2w  1381  offset=0
                      04970 ;; >>> /home/sdcc-builder/build/sdcc-build/orig/sdcc/src/pic14/gen.c:1386:mov2w
                      04971 ;;      1109 rIdx = r0x104D 
                      04972         .line   20; "gpio.c"    GPIO_SetPinDirection(port,pin ,direction) ;
0533   08??           04973         MOVF    r0x101E,W
                      04974 ;;      694 register type nRegs=1
                      04975 ;;      2135 left AOP_REG
                      04976 ;; >>> /home/sdcc-builder/build/sdcc-build/orig/sdcc/src/pic14/gen.c:2143:genCall
                      04977 ;; ***  popRegFromIdx,1042  , rIdx=0x7e
0534   00??           04978         MOVWF   STK01
                      04979 ;;; /home/sdcc-builder/build/sdcc-build/orig/sdcc/src/pic14/gen.c:1343:mov2w_op *{*
                      04980 ;; ***  mov2w  1381  offset=0
                      04981 ;; >>> /home/sdcc-builder/build/sdcc-build/orig/sdcc/src/pic14/gen.c:1386:mov2w
                      04982 ;;      1109 rIdx = r0x104C 
0535   08??           04983         MOVF    r0x101D,W
                      04984 ;;      694 register type nRegs=1
                      04985 ;;      2135 left AOP_REG
                      04986 ;; >>> /home/sdcc-builder/build/sdcc-build/orig/sdcc/src/pic14/gen.c:2143:genCall
                      04987 ;; ***  popRegFromIdx,1042  , rIdx=0x7f
0536   00??           04988         MOVWF   STK00
                      04989 ;;; /home/sdcc-builder/build/sdcc-build/orig/sdcc/src/pic14/gen.c:1343:mov2w_op *{*
                      04990 ;; ***  mov2w  1381  offset=0
                      04991 ;; >>> /home/sdcc-builder/build/sdcc-build/orig/sdcc/src/pic14/gen.c:1386:mov2w
                      04992 ;;      1109 rIdx = r0x104B 
0537   08??           04993         MOVF    r0x101C,W
gpasm-1.4.0 #1106 (Oct  6 2014) obj\Debug\gpi   8-17-2021  02:09:23         PAGE 96


LOC    OBJECT CODE    LINE  SOURCE TEXT
  VALUE

                      04994 ;; >>> /home/sdcc-builder/build/sdcc-build/orig/sdcc/src/pic14/gen.c:2173:genCall
0538   ???? ????      04995         PAGESEL _GPIO_SetPinDirection
                      04996 ;; >>> /home/sdcc-builder/build/sdcc-build/orig/sdcc/src/pic14/gen.c:2175:genCall
053A   2???           04997         CALL    _GPIO_SetPinDirection
                      04998 ;; >>> /home/sdcc-builder/build/sdcc-build/orig/sdcc/src/pic14/gen.c:2181:genCall
053B   ???? ????      04999         PAGESEL $
                      05000 ;;; /home/sdcc-builder/build/sdcc-build/orig/sdcc/src/pic14/gen.c:1845:unsaveRegisters *{*
                      05001 ;; ***  unsaveRegisters  1847
                      05002 ;;; /home/sdcc-builder/build/sdcc-build/orig/sdcc/src/pic14/gen.c:2316:resultRemat *{*
                      05003 ;;; /home/sdcc-builder/build/sdcc-build/orig/sdcc/src/pic14/gen.c:2316:resultRemat *{*
                      05004 ;;; /home/sdcc-builder/build/sdcc-build/orig/sdcc/src/pic14/gen.c:2316:resultRemat *{*
                      05005 ;;; /home/sdcc-builder/build/sdcc-build/orig/sdcc/src/pic14/gen.c:2316:resultRemat *{*
                      05006 ;;; /home/sdcc-builder/build/sdcc-build/orig/sdcc/src/pic14/gen.c:2086:genCall *{*
                      05007 ;; ***  genCall  2088
                      05008 ;;; /home/sdcc-builder/build/sdcc-build/orig/sdcc/src/pic14/gen.c:1801:saveRegisters *{*
                      05009 ;; ***  saveRegisters  1803
                      05010 ;;      694 register type nRegs=1
                      05011 ;;      694 register type nRegs=1
                      05012 ;;      694 register type nRegs=1
                      05013 ;;      694 register type nRegs=1
                      05014 ;;      2135 left AOP_REG
                      05015 ;;; /home/sdcc-builder/build/sdcc-build/orig/sdcc/src/pic14/gen.c:1343:mov2w_op *{*
                      05016 ;; ***  mov2w  1381  offset=0
                      05017 ;; >>> /home/sdcc-builder/build/sdcc-build/orig/sdcc/src/pic14/gen.c:1386:mov2w
                      05018 ;;      1109 rIdx = r0x104E 
                      05019         .line   22; "gpio.c"    GPIO_SetPinState(port ,pin ,init_state) ;
053D   ???? ????      05020         BANKSEL r0x101F
053F   08??           05021         MOVF    r0x101F,W
                      05022 ;;      694 register type nRegs=1
                      05023 ;;      2135 left AOP_REG
                      05024 ;; >>> /home/sdcc-builder/build/sdcc-build/orig/sdcc/src/pic14/gen.c:2143:genCall
                      05025 ;; ***  popRegFromIdx,1042  , rIdx=0x7e
0540   00??           05026         MOVWF   STK01
                      05027 ;;; /home/sdcc-builder/build/sdcc-build/orig/sdcc/src/pic14/gen.c:1343:mov2w_op *{*
                      05028 ;; ***  mov2w  1381  offset=0
                      05029 ;; >>> /home/sdcc-builder/build/sdcc-build/orig/sdcc/src/pic14/gen.c:1386:mov2w
                      05030 ;;      1109 rIdx = r0x104C 
0541   08??           05031         MOVF    r0x101D,W
                      05032 ;;      694 register type nRegs=1
                      05033 ;;      2135 left AOP_REG
                      05034 ;; >>> /home/sdcc-builder/build/sdcc-build/orig/sdcc/src/pic14/gen.c:2143:genCall
                      05035 ;; ***  popRegFromIdx,1042  , rIdx=0x7f
0542   00??           05036         MOVWF   STK00
                      05037 ;;; /home/sdcc-builder/build/sdcc-build/orig/sdcc/src/pic14/gen.c:1343:mov2w_op *{*
                      05038 ;; ***  mov2w  1381  offset=0
                      05039 ;; >>> /home/sdcc-builder/build/sdcc-build/orig/sdcc/src/pic14/gen.c:1386:mov2w
                      05040 ;;      1109 rIdx = r0x104B 
0543   08??           05041         MOVF    r0x101C,W
                      05042 ;; >>> /home/sdcc-builder/build/sdcc-build/orig/sdcc/src/pic14/gen.c:2173:genCall
0544   ???? ????      05043         PAGESEL _GPIO_SetPinState
                      05044 ;; >>> /home/sdcc-builder/build/sdcc-build/orig/sdcc/src/pic14/gen.c:2175:genCall
0546   2???           05045         CALL    _GPIO_SetPinState
                      05046 ;; >>> /home/sdcc-builder/build/sdcc-build/orig/sdcc/src/pic14/gen.c:2181:genCall
gpasm-1.4.0 #1106 (Oct  6 2014) obj\Debug\gpi   8-17-2021  02:09:23         PAGE 97


LOC    OBJECT CODE    LINE  SOURCE TEXT
  VALUE

0547   ???? ????      05047         PAGESEL $
                      05048 ;;; /home/sdcc-builder/build/sdcc-build/orig/sdcc/src/pic14/gen.c:1845:unsaveRegisters *{*
                      05049 ;; ***  unsaveRegisters  1847
                      05050 ;;; /home/sdcc-builder/build/sdcc-build/orig/sdcc/src/pic14/gen.c:2316:resultRemat *{*
                      05051 ;;; /home/sdcc-builder/build/sdcc-build/orig/sdcc/src/pic14/gen.c:2760:genLabel *{*
                      05052 ;; ***  genLabel  2763
                      05053 ;;; /home/sdcc-builder/build/sdcc-build/orig/sdcc/src/pic14/gen.c:2316:resultRemat *{*
                      05054 ;;; /home/sdcc-builder/build/sdcc-build/orig/sdcc/src/pic14/gen.c:2528:genEndFunction *{*
                      05055 ;; ***  genEndFunction  2530
0549   0008           05056         RETURN  
                      05057 ; exit point of _GPIO_InitPin
                      05058 ;;; /home/sdcc-builder/build/sdcc-build/orig/sdcc/src/pic14/gen.c:7426:genpic14Code *{*
                      05059 
                      05060 ;***
                      05061 ;  pBlock Stats: dbName = C
                      05062 ;***
                      05063 ;entry:  _GPIO_InitPort ;Function start
                      05064 ; 2 exit points
                      05065 ;has an exit
                      05066 ;functions called:
                      05067 ;   _GPIO_SetPortDirection
                      05068 ;   _GPIO_SetPortData
                      05069 ;   _GPIO_SetPortDirection
                      05070 ;   _GPIO_SetPortData
                      05071 ;5 compiler assigned registers:
                      05072 ;   r0x1020
                      05073 ;   STK00
                      05074 ;   r0x1021
                      05075 ;   STK01
                      05076 ;   r0x1022
                      05077 ;; Starting pCode block
                      05078 ;;; /home/sdcc-builder/build/sdcc-build/orig/sdcc/src/pic14/gen.c:2316:resultRemat *{*
                      05079 ;;; /home/sdcc-builder/build/sdcc-build/orig/sdcc/src/pic14/gen.c:2760:genLabel *{*
                      05080 ;; ***  genLabel  2763
                      05081 ;;; /home/sdcc-builder/build/sdcc-build/orig/sdcc/src/pic14/gen.c:2316:resultRemat *{*
                      05082 ;;; /home/sdcc-builder/build/sdcc-build/orig/sdcc/src/pic14/gen.c:2340:genFunction *{*
                      05083 ;; ***  genFunction  2342 curr label offset=0previous max_key=0 
054A                  05084 _GPIO_InitPort  ;Function start
                      05085 ; 2 exit points
                      05086 ;;; /home/sdcc-builder/build/sdcc-build/orig/sdcc/src/pic14/gen.c:2316:resultRemat *{*
                      05087 ;;; /home/sdcc-builder/build/sdcc-build/orig/sdcc/src/pic14/gen.c:7358:genReceive *{*
                      05088 ;; ***  genReceive  7359
                      05089 ;;      694 register type nRegs=1
                      05090 ;;; /home/sdcc-builder/build/sdcc-build/orig/sdcc/src/pic14/gen.c:1907:assignResultValue *{*
                      05091 ;; ***  assignResultValue  1909
                      05092 ;;      line = 1911 result -=-, size=0, left AOP_REG=r0x1048, size=1, right -=-, size=0
                      05093 ;; >>> /home/sdcc-builder/build/sdcc-build/orig/sdcc/src/pic14/gen.c:1393:movwf
                      05094 ;;      1109 rIdx = r0x1048 
                      05095         .line   10; "gpio.c"    void GPIO_InitPort(tPORT port ,tPORT_DIRECTION direction ,tSTATE init_st
                            ate)
054A   ???? ????      05096         BANKSEL r0x1020
054C   00??           05097         MOVWF   r0x1020
                      05098 ;;; /home/sdcc-builder/build/sdcc-build/orig/sdcc/src/pic14/gen.c:2316:resultRemat *{*
gpasm-1.4.0 #1106 (Oct  6 2014) obj\Debug\gpi   8-17-2021  02:09:23         PAGE 98


LOC    OBJECT CODE    LINE  SOURCE TEXT
  VALUE

                      05099 ;;; /home/sdcc-builder/build/sdcc-build/orig/sdcc/src/pic14/gen.c:7358:genReceive *{*
                      05100 ;; ***  genReceive  7359
                      05101 ;;      694 register type nRegs=1
                      05102 ;;; /home/sdcc-builder/build/sdcc-build/orig/sdcc/src/pic14/gen.c:1907:assignResultValue *{*
                      05103 ;; ***  assignResultValue  1909
                      05104 ;;      line = 1911 result -=-, size=0, left AOP_REG=r0x1049, size=1, right -=-, size=0
                      05105 ;; >>> /home/sdcc-builder/build/sdcc-build/orig/sdcc/src/pic14/gen.c:1423:get_returnvalue
                      05106 ;; ***  popRegFromIdx,1042  , rIdx=0x7f
054D   08??           05107         MOVF    STK00,W
                      05108 ;; >>> /home/sdcc-builder/build/sdcc-build/orig/sdcc/src/pic14/gen.c:1393:movwf
                      05109 ;;      1109 rIdx = r0x1049 
054E   00??           05110         MOVWF   r0x1021
                      05111 ;;; /home/sdcc-builder/build/sdcc-build/orig/sdcc/src/pic14/gen.c:2316:resultRemat *{*
                      05112 ;;; /home/sdcc-builder/build/sdcc-build/orig/sdcc/src/pic14/gen.c:7358:genReceive *{*
                      05113 ;; ***  genReceive  7359
                      05114 ;;      694 register type nRegs=1
                      05115 ;;; /home/sdcc-builder/build/sdcc-build/orig/sdcc/src/pic14/gen.c:1907:assignResultValue *{*
                      05116 ;; ***  assignResultValue  1909
                      05117 ;;      line = 1911 result -=-, size=0, left AOP_REG=r0x104A, size=1, right -=-, size=0
                      05118 ;; >>> /home/sdcc-builder/build/sdcc-build/orig/sdcc/src/pic14/gen.c:1423:get_returnvalue
                      05119 ;; ***  popRegFromIdx,1042  , rIdx=0x7e
054F   08??           05120         MOVF    STK01,W
                      05121 ;; >>> /home/sdcc-builder/build/sdcc-build/orig/sdcc/src/pic14/gen.c:1393:movwf
                      05122 ;;      1109 rIdx = r0x104A 
0550   00??           05123         MOVWF   r0x1022
                      05124 ;;; /home/sdcc-builder/build/sdcc-build/orig/sdcc/src/pic14/gen.c:2316:resultRemat *{*
                      05125 ;;; /home/sdcc-builder/build/sdcc-build/orig/sdcc/src/pic14/gen.c:2316:resultRemat *{*
                      05126 ;;; /home/sdcc-builder/build/sdcc-build/orig/sdcc/src/pic14/gen.c:2316:resultRemat *{*
                      05127 ;;; /home/sdcc-builder/build/sdcc-build/orig/sdcc/src/pic14/gen.c:2086:genCall *{*
                      05128 ;; ***  genCall  2088
                      05129 ;;; /home/sdcc-builder/build/sdcc-build/orig/sdcc/src/pic14/gen.c:1801:saveRegisters *{*
                      05130 ;; ***  saveRegisters  1803
                      05131 ;;      694 register type nRegs=1
                      05132 ;;      694 register type nRegs=1
                      05133 ;;      694 register type nRegs=1
                      05134 ;;      2135 left AOP_REG
                      05135 ;;; /home/sdcc-builder/build/sdcc-build/orig/sdcc/src/pic14/gen.c:1343:mov2w_op *{*
                      05136 ;; ***  mov2w  1381  offset=0
                      05137 ;; >>> /home/sdcc-builder/build/sdcc-build/orig/sdcc/src/pic14/gen.c:1386:mov2w
                      05138 ;;      1109 rIdx = r0x1049 
                      05139         .line   13; "gpio.c"    GPIO_SetPortDirection(port,direction) ;
0551   08??           05140         MOVF    r0x1021,W
                      05141 ;;      694 register type nRegs=1
                      05142 ;;      2135 left AOP_REG
                      05143 ;; >>> /home/sdcc-builder/build/sdcc-build/orig/sdcc/src/pic14/gen.c:2143:genCall
                      05144 ;; ***  popRegFromIdx,1042  , rIdx=0x7f
0552   00??           05145         MOVWF   STK00
                      05146 ;;; /home/sdcc-builder/build/sdcc-build/orig/sdcc/src/pic14/gen.c:1343:mov2w_op *{*
                      05147 ;; ***  mov2w  1381  offset=0
                      05148 ;; >>> /home/sdcc-builder/build/sdcc-build/orig/sdcc/src/pic14/gen.c:1386:mov2w
                      05149 ;;      1109 rIdx = r0x1048 
0553   08??           05150         MOVF    r0x1020,W
                      05151 ;; >>> /home/sdcc-builder/build/sdcc-build/orig/sdcc/src/pic14/gen.c:2173:genCall
gpasm-1.4.0 #1106 (Oct  6 2014) obj\Debug\gpi   8-17-2021  02:09:23         PAGE 99


LOC    OBJECT CODE    LINE  SOURCE TEXT
  VALUE

0554   ???? ????      05152         PAGESEL _GPIO_SetPortDirection
                      05153 ;; >>> /home/sdcc-builder/build/sdcc-build/orig/sdcc/src/pic14/gen.c:2175:genCall
0556   2???           05154         CALL    _GPIO_SetPortDirection
                      05155 ;; >>> /home/sdcc-builder/build/sdcc-build/orig/sdcc/src/pic14/gen.c:2181:genCall
0557   ???? ????      05156         PAGESEL $
                      05157 ;;; /home/sdcc-builder/build/sdcc-build/orig/sdcc/src/pic14/gen.c:1845:unsaveRegisters *{*
                      05158 ;; ***  unsaveRegisters  1847
                      05159 ;;; /home/sdcc-builder/build/sdcc-build/orig/sdcc/src/pic14/gen.c:2316:resultRemat *{*
                      05160 ;;; /home/sdcc-builder/build/sdcc-build/orig/sdcc/src/pic14/gen.c:2316:resultRemat *{*
                      05161 ;;; /home/sdcc-builder/build/sdcc-build/orig/sdcc/src/pic14/gen.c:2316:resultRemat *{*
                      05162 ;;; /home/sdcc-builder/build/sdcc-build/orig/sdcc/src/pic14/gen.c:2086:genCall *{*
                      05163 ;; ***  genCall  2088
                      05164 ;;; /home/sdcc-builder/build/sdcc-build/orig/sdcc/src/pic14/gen.c:1801:saveRegisters *{*
                      05165 ;; ***  saveRegisters  1803
                      05166 ;;      694 register type nRegs=1
                      05167 ;;      694 register type nRegs=1
                      05168 ;;      694 register type nRegs=1
                      05169 ;;      2135 left AOP_REG
                      05170 ;;; /home/sdcc-builder/build/sdcc-build/orig/sdcc/src/pic14/gen.c:1343:mov2w_op *{*
                      05171 ;; ***  mov2w  1381  offset=0
                      05172 ;; >>> /home/sdcc-builder/build/sdcc-build/orig/sdcc/src/pic14/gen.c:1386:mov2w
                      05173 ;;      1109 rIdx = r0x104A 
                      05174         .line   15; "gpio.c"    GPIO_SetPortData(port,init_state) ;
0559   ???? ????      05175         BANKSEL r0x1022
055B   08??           05176         MOVF    r0x1022,W
                      05177 ;;      694 register type nRegs=1
                      05178 ;;      2135 left AOP_REG
                      05179 ;; >>> /home/sdcc-builder/build/sdcc-build/orig/sdcc/src/pic14/gen.c:2143:genCall
                      05180 ;; ***  popRegFromIdx,1042  , rIdx=0x7f
055C   00??           05181         MOVWF   STK00
                      05182 ;;; /home/sdcc-builder/build/sdcc-build/orig/sdcc/src/pic14/gen.c:1343:mov2w_op *{*
                      05183 ;; ***  mov2w  1381  offset=0
                      05184 ;; >>> /home/sdcc-builder/build/sdcc-build/orig/sdcc/src/pic14/gen.c:1386:mov2w
                      05185 ;;      1109 rIdx = r0x1048 
055D   08??           05186         MOVF    r0x1020,W
                      05187 ;; >>> /home/sdcc-builder/build/sdcc-build/orig/sdcc/src/pic14/gen.c:2173:genCall
055E   ???? ????      05188         PAGESEL _GPIO_SetPortData
                      05189 ;; >>> /home/sdcc-builder/build/sdcc-build/orig/sdcc/src/pic14/gen.c:2175:genCall
0560   2???           05190         CALL    _GPIO_SetPortData
                      05191 ;; >>> /home/sdcc-builder/build/sdcc-build/orig/sdcc/src/pic14/gen.c:2181:genCall
0561   ???? ????      05192         PAGESEL $
                      05193 ;;; /home/sdcc-builder/build/sdcc-build/orig/sdcc/src/pic14/gen.c:1845:unsaveRegisters *{*
                      05194 ;; ***  unsaveRegisters  1847
                      05195 ;;; /home/sdcc-builder/build/sdcc-build/orig/sdcc/src/pic14/gen.c:2316:resultRemat *{*
                      05196 ;;; /home/sdcc-builder/build/sdcc-build/orig/sdcc/src/pic14/gen.c:2760:genLabel *{*
                      05197 ;; ***  genLabel  2763
                      05198 ;;; /home/sdcc-builder/build/sdcc-build/orig/sdcc/src/pic14/gen.c:2316:resultRemat *{*
                      05199 ;;; /home/sdcc-builder/build/sdcc-build/orig/sdcc/src/pic14/gen.c:2528:genEndFunction *{*
                      05200 ;; ***  genEndFunction  2530
0563   0008           05201         RETURN  
                      05202 ; exit point of _GPIO_InitPort
                      05203 ;;; /home/sdcc-builder/build/sdcc-build/orig/sdcc/src/pic14/gen.c:7426:genpic14Code *{*
                      05204 
gpasm-1.4.0 #1106 (Oct  6 2014) obj\Debug\gpi   8-17-2021  02:09:23         PAGE 100


LOC    OBJECT CODE    LINE  SOURCE TEXT
  VALUE

                      05205 
                      05206 ;       code size estimation:
                      05207 ;         924+  228 =  1152 instructions ( 2760 byte)
                      05208 
                      05209         end
gpasm-1.4.0 #1106 (Oct  6 2014) obj\Debug\gpi   8-17-2021  02:09:23         PAGE 101


SYMBOL TABLE
  LABEL                             VALUE

ACKDT                             00000005
ACKEN                             00000004
ACKSTAT                           00000006
ADCON0                            0000001F
ADCON1                            0000009F
ADCS0                             00000006
ADCS1                             00000007
ADCS2                             00000006
ADDEN                             00000003
ADFM                              00000007
ADIE                              00000006
ADIF                              00000006
ADON                              00000000
ADRESH                            0000001E
ADRESL                            0000009E
BCLIE                             00000003
BCLIF                             00000003
BF                                00000000
BRGH                              00000002
C                                 00000000
C1INV                             00000004
C1OUT                             00000006
C2INV                             00000005
C2OUT                             00000007
CCP1CON                           00000017
CCP1IE                            00000002
CCP1IF                            00000002
CCP1M0                            00000000
CCP1M1                            00000001
CCP1M2                            00000002
CCP1M3                            00000003
CCP1X                             00000005
CCP1Y                             00000004
CCP2CON                           0000001D
CCP2IE                            00000000
CCP2IF                            00000000
CCP2M0                            00000000
CCP2M1                            00000001
CCP2M2                            00000002
CCP2M3                            00000003
CCP2X                             00000005
CCP2Y                             00000004
CCPR1                             00000015
CCPR1H                            00000016
CCPR1L                            00000015
CCPR2                             0000001B
CCPR2H                            0000001C
CCPR2L                            0000001B
CHS0                              00000003
CHS1                              00000004
CHS2                              00000005
CIS                               00000003
CKE                               00000006
gpasm-1.4.0 #1106 (Oct  6 2014) obj\Debug\gpi   8-17-2021  02:09:23         PAGE 102


SYMBOL TABLE
  LABEL                             VALUE 

CKP                               00000004
CM0                               00000000
CM1                               00000001
CM2                               00000002
CMCON                             0000009C
CMIE                              00000006
CMIF                              00000006
CREN                              00000004
CSRC                              00000007
CVR0                              00000000
CVR1                              00000001
CVR2                              00000002
CVR3                              00000003
CVRCON                            0000009D
CVREN                             00000007
CVROE                             00000006
CVRR                              00000005
D                                 00000005
DATA_ADDRESS                      00000005
DC                                00000001
D_A                               00000005
D_NOT_A                           00000005
EEADR                             0000010D
EEADRH                            0000010F
EECON1                            0000018C
EECON2                            0000018D
EEDATA                            0000010C
EEDATH                            0000010E
EEIE                              00000004
EEIF                              00000004
EEPGD                             00000007
F                                 00000001
FERR                              00000002
FSR                               00000004
GCEN                              00000007
GIE                               00000007
GO                                00000002
GO_DONE                           00000002
GO_NOT_DONE                       00000002
I2C_DATA                          00000005
I2C_READ                          00000002
I2C_START                         00000003
I2C_STOP                          00000004
IBF                               00000007
IBOV                              00000005
INDF                              00000000
INTCON                            0000000B
INTE                              00000004
INTEDG                            00000006
INTF                              00000001
IRP                               00000007
NOT_A                             00000005
NOT_ADDRESS                       00000005
gpasm-1.4.0 #1106 (Oct  6 2014) obj\Debug\gpi   8-17-2021  02:09:23         PAGE 103


SYMBOL TABLE
  LABEL                             VALUE 

NOT_BO                            00000000
NOT_BOR                           00000000
NOT_DONE                          00000002
NOT_PD                            00000003
NOT_POR                           00000001
NOT_RBPU                          00000007
NOT_RC8                           00000006
NOT_T1SYNC                        00000002
NOT_TO                            00000004
NOT_TX8                           00000006
NOT_W                             00000002
NOT_WRITE                         00000002
OBF                               00000006
OERR                              00000001
OPTION_REG                        00000081
P                                 00000004
PCFG0                             00000000
PCFG1                             00000001
PCFG2                             00000002
PCFG3                             00000003
PCL                               00000002
PCLATH                            0000000A
PCON                              0000008E
PEIE                              00000006
PEN                               00000002
PIE1                              0000008C
PIE2                              0000008D
PIR1                              0000000C
PIR2                              0000000D
PORTA                             00000005
PORTB                             00000006
PORTC                             00000007
PORTD                             00000008
PORTE                             00000009
PR2                               00000092
PS0                               00000000
PS1                               00000001
PS2                               00000002
PSA                               00000003
PSAVE                             00000000
PSPIE                             00000007
PSPIF                             00000007
PSPMODE                           00000004
R                                 00000002
RA0                               00000000
RA1                               00000001
RA2                               00000002
RA3                               00000003
RA4                               00000004
RA5                               00000005
RB0                               00000000
RB1                               00000001
RB2                               00000002
gpasm-1.4.0 #1106 (Oct  6 2014) obj\Debug\gpi   8-17-2021  02:09:23         PAGE 104


SYMBOL TABLE
  LABEL                             VALUE 

RB3                               00000003
RB4                               00000004
RB5                               00000005
RB6                               00000006
RB7                               00000007
RBIE                              00000003
RBIF                              00000000
RC0                               00000000
RC1                               00000001
RC2                               00000002
RC3                               00000003
RC4                               00000004
RC5                               00000005
RC6                               00000006
RC7                               00000007
RC8_9                             00000006
RC9                               00000006
RCD8                              00000000
RCEN                              00000003
RCIE                              00000005
RCIF                              00000005
RCREG                             0000001A
RCSTA                             00000018
RD                                00000000
RD0                               00000000
RD1                               00000001
RD2                               00000002
RD3                               00000003
RD4                               00000004
RD5                               00000005
RD6                               00000006
RD7                               00000007
RE0                               00000000
RE1                               00000001
RE2                               00000002
READ_WRITE                        00000002
RP0                               00000005
RP1                               00000006
RSEN                              00000001
RX9                               00000006
RX9D                              00000000
R_NOT_W                           00000002
R_W                               00000002
S                                 00000003
SEN                               00000000
SMP                               00000007
SPBRG                             00000099
SPEN                              00000007
SREN                              00000005
SSAVE                             00000000
SSPADD                            00000093
SSPBUF                            00000013
SSPCON                            00000014
gpasm-1.4.0 #1106 (Oct  6 2014) obj\Debug\gpi   8-17-2021  02:09:23         PAGE 105


SYMBOL TABLE
  LABEL                             VALUE 

SSPCON2                           00000091
SSPEN                             00000005
SSPIE                             00000003
SSPIF                             00000003
SSPM0                             00000000
SSPM1                             00000001
SSPM2                             00000002
SSPM3                             00000003
SSPOV                             00000006
SSPSTAT                           00000094
STATUS                            00000003
STK00                             00000000
STK01                             00000000
STK02                             00000000
STK03                             00000000
STK04                             00000000
STK05                             00000000
STK06                             00000000
STK07                             00000000
STK08                             00000000
STK09                             00000000
STK10                             00000000
STK11                             00000000
STK12                             00000000
SYNC                              00000004
T0CS                              00000005
T0IE                              00000005
T0IF                              00000002
T0SE                              00000004
T1CKPS0                           00000004
T1CKPS1                           00000005
T1CON                             00000010
T1INSYNC                          00000002
T1OSCEN                           00000003
T1SYNC                            00000002
T2CKPS0                           00000000
T2CKPS1                           00000001
T2CON                             00000012
TMR0                              00000001
TMR0IE                            00000005
TMR0IF                            00000002
TMR1                              0000000E
TMR1CS                            00000001
TMR1H                             0000000F
TMR1IE                            00000000
TMR1IF                            00000000
TMR1L                             0000000E
TMR1ON                            00000000
TMR2                              00000011
TMR2IE                            00000001
TMR2IF                            00000001
TMR2ON                            00000002
TOUTPS0                           00000003
gpasm-1.4.0 #1106 (Oct  6 2014) obj\Debug\gpi   8-17-2021  02:09:23         PAGE 106


SYMBOL TABLE
  LABEL                             VALUE 

TOUTPS1                           00000004
TOUTPS2                           00000005
TOUTPS3                           00000006
TRISA                             00000085
TRISA0                            00000000
TRISA1                            00000001
TRISA2                            00000002
TRISA3                            00000003
TRISA4                            00000004
TRISA5                            00000005
TRISB                             00000086
TRISB0                            00000000
TRISB1                            00000001
TRISB2                            00000002
TRISB3                            00000003
TRISB4                            00000004
TRISB5                            00000005
TRISB6                            00000006
TRISB7                            00000007
TRISC                             00000087
TRISC0                            00000000
TRISC1                            00000001
TRISC2                            00000002
TRISC3                            00000003
TRISC4                            00000004
TRISC5                            00000005
TRISC6                            00000006
TRISC7                            00000007
TRISD                             00000088
TRISD0                            00000000
TRISD1                            00000001
TRISD2                            00000002
TRISD3                            00000003
TRISD4                            00000004
TRISD5                            00000005
TRISD6                            00000006
TRISD7                            00000007
TRISE                             00000089
TRISE0                            00000000
TRISE1                            00000001
TRISE2                            00000002
TRMT                              00000001
TX8_9                             00000006
TX9                               00000006
TX9D                              00000000
TXD8                              00000000
TXEN                              00000005
TXIE                              00000004
TXIF                              00000004
TXREG                             00000019
TXSTA                             00000098
UA                                00000001
W                                 00000000
gpasm-1.4.0 #1106 (Oct  6 2014) obj\Debug\gpi   8-17-2021  02:09:23         PAGE 107


SYMBOL TABLE
  LABEL                             VALUE 

WCOL                              00000007
WR                                00000001
WREN                              00000002
WRERR                             00000003
WSAVE                             00000000
Z                                 00000002
_00001_DS_                        00000017
_00002_DS_                        00000136
_00003_DS_                        00000253
_00004_DS_                        00000294
_00005_DS_                        000002D8
_00006_DS_                        000003CD
_00007_DS_                        000004C0
_00008_DS_                        000004FF
_00121_DS_                        00000505
_00122_DS_                        0000050C
_00123_DS_                        00000513
_00124_DS_                        0000051A
_00125_DS_                        00000521
_00128_DS_                        00000527
_00134_DS_                        00000500
_00139_DS_                        000004C6
_00140_DS_                        000004CD
_00141_DS_                        000004D4
_00142_DS_                        000004DB
_00143_DS_                        000004E2
_00146_DS_                        000004E8
_00152_DS_                        000004C1
_00157_DS_                        000003D3
_00158_DS_                        000003FE
_00159_DS_                        00000429
_00160_DS_                        00000454
_00161_DS_                        0000047F
_00164_DS_                        000004A9
_00170_DS_                        000003CE
_00171_DS_                        000003DB
_00172_DS_                        000003E1
_00173_DS_                        000003F0
_00174_DS_                        000003F6
_00175_DS_                        00000406
_00176_DS_                        0000040C
_00177_DS_                        0000041B
_00178_DS_                        00000421
_00179_DS_                        00000431
_00180_DS_                        00000437
_00181_DS_                        00000446
_00182_DS_                        0000044C
_00183_DS_                        0000045C
_00184_DS_                        00000462
_00185_DS_                        00000471
_00186_DS_                        00000477
_00187_DS_                        00000487
_00188_DS_                        0000048D
gpasm-1.4.0 #1106 (Oct  6 2014) obj\Debug\gpi   8-17-2021  02:09:23         PAGE 108


SYMBOL TABLE
  LABEL                             VALUE 

_00189_DS_                        0000049C
_00190_DS_                        000004A2
_00195_DS_                        000002DE
_00196_DS_                        00000309
_00197_DS_                        00000334
_00198_DS_                        0000035F
_00199_DS_                        0000038A
_00202_DS_                        000003B4
_00208_DS_                        000002D9
_00209_DS_                        000002E6
_00210_DS_                        000002EC
_00211_DS_                        000002FB
_00212_DS_                        00000301
_00213_DS_                        00000311
_00214_DS_                        00000317
_00215_DS_                        00000326
_00216_DS_                        0000032C
_00217_DS_                        0000033C
_00218_DS_                        00000342
_00219_DS_                        00000351
_00220_DS_                        00000357
_00221_DS_                        00000367
_00222_DS_                        0000036D
_00223_DS_                        0000037C
_00224_DS_                        00000382
_00225_DS_                        00000392
_00226_DS_                        00000398
_00227_DS_                        000003A7
_00228_DS_                        000003AD
_00233_DS_                        0000029A
_00234_DS_                        000002A1
_00235_DS_                        000002A8
_00236_DS_                        000002AF
_00237_DS_                        000002B6
_00239_DS_                        000002BC
_00246_DS_                        00000295
_00251_DS_                        00000259
_00252_DS_                        00000260
_00253_DS_                        00000267
_00254_DS_                        0000026E
_00255_DS_                        00000275
_00257_DS_                        0000027B
_00264_DS_                        00000254
_00269_DS_                        0000013C
_00270_DS_                        0000016F
_00271_DS_                        000001A2
_00272_DS_                        000001D5
_00273_DS_                        00000208
_00275_DS_                        0000023A
_00282_DS_                        00000137
_00283_DS_                        00000146
_00284_DS_                        0000014D
_00285_DS_                        00000160
gpasm-1.4.0 #1106 (Oct  6 2014) obj\Debug\gpi   8-17-2021  02:09:23         PAGE 109


SYMBOL TABLE
  LABEL                             VALUE 

_00286_DS_                        0000016A
_00287_DS_                        00000179
_00288_DS_                        00000180
_00289_DS_                        00000193
_00290_DS_                        0000019D
_00291_DS_                        000001AC
_00292_DS_                        000001B3
_00293_DS_                        000001C6
_00294_DS_                        000001D0
_00295_DS_                        000001DF
_00296_DS_                        000001E6
_00297_DS_                        000001F9
_00298_DS_                        00000203
_00299_DS_                        00000212
_00300_DS_                        00000219
_00301_DS_                        0000022C
_00302_DS_                        00000236
_00307_DS_                        0000001D
_00308_DS_                        00000050
_00309_DS_                        00000083
_00310_DS_                        000000B6
_00311_DS_                        000000E9
_00313_DS_                        0000011B
_00320_DS_                        00000018
_00321_DS_                        00000027
_00322_DS_                        0000002E
_00323_DS_                        00000041
_00324_DS_                        0000004B
_00325_DS_                        0000005A
_00326_DS_                        00000061
_00327_DS_                        00000074
_00328_DS_                        0000007E
_00329_DS_                        0000008D
_00330_DS_                        00000094
_00331_DS_                        000000A7
_00332_DS_                        000000B1
_00333_DS_                        000000C0
_00334_DS_                        000000C7
_00335_DS_                        000000DA
_00336_DS_                        000000E4
_00337_DS_                        000000F3
_00338_DS_                        000000FA
_00339_DS_                        0000010D
_00340_DS_                        00000117
_ADCON0                           00000000
_ADCON0bits                       00000000
_ADCON1                           00000000
_ADCON1bits                       00000000
_ADRESH                           00000000
_ADRESL                           00000000
_BODEN_OFF                        00003FBF
_BODEN_ON                         00003FFF
_BOREN_OFF                        00003FBF
gpasm-1.4.0 #1106 (Oct  6 2014) obj\Debug\gpi   8-17-2021  02:09:23         PAGE 110


SYMBOL TABLE
  LABEL                             VALUE 

_BOREN_ON                         00003FFF
_CCP1CON                          00000000
_CCP1CONbits                      00000000
_CCP2CON                          00000000
_CCP2CONbits                      00000000
_CCPR1                            00000000
_CCPR1H                           00000000
_CCPR1L                           00000000
_CCPR2                            00000000
_CCPR2H                           00000000
_CCPR2L                           00000000
_CMCON                            00000000
_CMCONbits                        00000000
_CONFIG                           00002007
_CPD_OFF                          00003FFF
_CPD_ON                           00003EFF
_CP_ALL                           00001FFF
_CP_OFF                           00003FFF
_CP_ON                            00001FFF
_CVRCON                           00000000
_CVRCONbits                       00000000
_DEBUG_OFF                        00003FFF
_DEBUG_ON                         000037FF
_DEVID1                           00002006
_EEADR                            00000000
_EEADRH                           00000000
_EECON1                           00000000
_EECON1bits                       00000000
_EECON2                           00000000
_EEDATA                           00000000
_EEDATH                           00000000
_FOSC_EXTRC                       00003FFF
_FOSC_HS                          00003FFE
_FOSC_LP                          00003FFC
_FOSC_XT                          00003FFD
_FSR                              00000000
_GPIO_GetPinDirection             00000000
_GPIO_GetPinState                 0000011F
_GPIO_GetPortDirection            0000023E
_GPIO_GetPortState                0000027F
_GPIO_InitPin                     0000052A
_GPIO_InitPort                    0000054A
_GPIO_SetPinDirection             000002C0
_GPIO_SetPinState                 000003B5
_GPIO_SetPortData                 000004E9
_GPIO_SetPortDirection            000004AA
_GPIO_UpdatePin                   00000528
_GPIO_UpdatePort                  00000529
_HS_OSC                           00003FFE
_IDLOC0                           00002000
_IDLOC1                           00002001
_IDLOC2                           00002002
_IDLOC3                           00002003
gpasm-1.4.0 #1106 (Oct  6 2014) obj\Debug\gpi   8-17-2021  02:09:23         PAGE 111


SYMBOL TABLE
  LABEL                             VALUE 

_INDF                             00000000
_INTCON                           00000000
_INTCONbits                       00000000
_LP_OSC                           00003FFC
_LVP_OFF                          00003F7F
_LVP_ON                           00003FFF
_OPTION_REG                       00000000
_OPTION_REGbits                   00000000
_PCL                              00000000
_PCLATH                           00000000
_PCON                             00000000
_PCONbits                         00000000
_PIE1                             00000000
_PIE1bits                         00000000
_PIE2                             00000000
_PIE2bits                         00000000
_PIR1                             00000000
_PIR1bits                         00000000
_PIR2                             00000000
_PIR2bits                         00000000
_PORTA                            00000000
_PORTAbits                        00000000
_PORTB                            00000000
_PORTBbits                        00000000
_PORTC                            00000000
_PORTCbits                        00000000
_PORTD                            00000000
_PORTDbits                        00000000
_PORTE                            00000000
_PORTEbits                        00000000
_PR2                              00000000
_PWRTE_OFF                        00003FFF
_PWRTE_ON                         00003FF7
_RCREG                            00000000
_RCSTA                            00000000
_RCSTAbits                        00000000
_RC_OSC                           00003FFF
_SPBRG                            00000000
_SSPADD                           00000000
_SSPBUF                           00000000
_SSPCON                           00000000
_SSPCON2                          00000000
_SSPCON2bits                      00000000
_SSPCONbits                       00000000
_SSPSTAT                          00000000
_SSPSTATbits                      00000000
_STATUS                           00000000
_STATUSbits                       00000000
_T1CON                            00000000
_T1CONbits                        00000000
_T2CON                            00000000
_T2CONbits                        00000000
_TMR0                             00000000
gpasm-1.4.0 #1106 (Oct  6 2014) obj\Debug\gpi   8-17-2021  02:09:23         PAGE 112


SYMBOL TABLE
  LABEL                             VALUE 

_TMR1                             00000000
_TMR1H                            00000000
_TMR1L                            00000000
_TMR2                             00000000
_TRISA                            00000000
_TRISAbits                        00000000
_TRISB                            00000000
_TRISBbits                        00000000
_TRISC                            00000000
_TRISCbits                        00000000
_TRISD                            00000000
_TRISDbits                        00000000
_TRISE                            00000000
_TRISEbits                        00000000
_TXREG                            00000000
_TXSTA                            00000000
_TXSTAbits                        00000000
_UTILITES_DelayMS                 00000000
_WDTE_OFF                         00003FFB
_WDTE_ON                          00003FFF
_WDT_OFF                          00003FFB
_WDT_ON                           00003FFF
_WRT_1FOURTH                      00003BFF
_WRT_256                          00003DFF
_WRT_HALF                         000039FF
_WRT_OFF                          00003FFF
_XT_OSC                           00003FFD
__16F877A                         00000001
__CODE_END                        00001FFF
__CODE_START                      00000000
__COMMON_RAM_END                  0000007F
__COMMON_RAM_START                00000070
__EEPROM_END                      000021FF
__EEPROM_START                    00002100
__VECTOR_INT                      00000004
__VECTOR_RESET                    00000000
_code_gpio_053B                   0000053B
_code_gpio_0547                   00000547
_code_gpio_0557                   00000557
_code_gpio_0561                   00000561
r0x1000                           0000001D
r0x1001                           0000001E
r0x1002                           0000001F
r0x1003                           00000020
r0x1004                           00000021
r0x1005                           00000022
r0x1006                           00000017
r0x1007                           00000018
r0x1008                           00000019
r0x1009                           0000001A
r0x100A                           0000001B
r0x100B                           0000001C
r0x100C                           00000015
gpasm-1.4.0 #1106 (Oct  6 2014) obj\Debug\gpi   8-17-2021  02:09:23         PAGE 113


SYMBOL TABLE
  LABEL                             VALUE 

r0x100D                           00000016
r0x100E                           00000013
r0x100F                           00000014
r0x1010                           0000000F
r0x1011                           00000010
r0x1012                           00000011
r0x1013                           00000012
r0x1014                           0000000B
r0x1015                           0000000C
r0x1016                           0000000D
r0x1017                           0000000E
r0x1018                           00000009
r0x1019                           0000000A
r0x101A                           00000007
r0x101B                           00000008
r0x101C                           00000003
r0x101D                           00000004
r0x101E                           00000005
r0x101F                           00000006
r0x1020                           00000000
r0x1021                           00000001
r0x1022                           00000002

Errors   :     0
Warnings :     0 reported,     0 suppressed
Messages :     0 reported,     0 suppressed

